ccopy_reg
_reconstructor
p1
(cmesh._mesh
Mesh
p2
c__builtin__
object
p3
NtRp4
(dp5
S'rho__plus'
p6
(lp7
(lp8
g1
(crwg.vector
Vector
p9
c__builtin__
list
p10
(lp11
F0.03888888888888889
aF0.022222222222222254
aF0
atRp12
ag1
(g9
g10
(lp13
F0.022222222222222227
aF0.088888888888888906
aF0
atRp14
ag1
(g9
g10
(lp15
F0.0055555555555555566
aF0.15555555555555564
aF0
atRp16
ag1
(g9
g10
(lp17
F0.011111111111111113
aF0.11111111111111122
aF0
atRp18
ag1
(g9
g10
(lp19
F0.0055555555555555566
aF0.088888888888889017
aF0
atRp20
ag1
(g9
g10
(lp21
F0.02777777777777778
aF0.044444444444444509
aF0
atRp22
ag1
(g9
g10
(lp23
F0.022222222222222227
aF0.022222222222222254
aF0
atRp24
ag1
(g9
g10
(lp25
F0.011111111111111113
aF0.044444444444444509
aF0
atRp26
ag1
(g9
g10
(lp27
F0.0055555555555555566
aF0.022222222222222254
aF0
atRp28
aa(lp29
g1
(g9
g10
(lp30
F0.03888888888888889
aF-0.17777777777777781
aF0
atRp31
ag1
(g9
g10
(lp32
F0.022222222222222227
aF-0.11111111111111116
aF0
atRp33
ag1
(g9
g10
(lp34
F0.0055555555555555566
aF-0.044444444444444425
aF0
atRp35
ag1
(g9
g10
(lp36
F0.011111111111111113
aF-0.088888888888888851
aF0
atRp37
ag1
(g9
g10
(lp38
F0.0055555555555555566
aF-0.11111111111111105
aF0
atRp39
ag1
(g9
g10
(lp40
F0.02777777777777778
aF-0.15555555555555556
aF0
atRp41
ag1
(g9
g10
(lp42
F0.022222222222222227
aF-0.17777777777777781
aF0
atRp43
ag1
(g9
g10
(lp44
F0.011111111111111113
aF-0.15555555555555556
aF0
atRp45
ag1
(g9
g10
(lp46
F0.0055555555555555566
aF-0.17777777777777781
aF0
atRp47
aa(lp48
g1
(g9
g10
(lp49
F-0.03888888888888889
aF0.17777777777777787
aF0
atRp50
ag1
(g9
g10
(lp51
F-0.022222222222222227
aF0.11111111111111122
aF0
atRp52
ag1
(g9
g10
(lp53
F-0.0055555555555555566
aF0.044444444444444398
aF0
atRp54
ag1
(g9
g10
(lp55
F-0.011111111111111113
aF0.088888888888888906
aF0
atRp56
ag1
(g9
g10
(lp57
F-0.0055555555555555566
aF0.11111111111111116
aF0
atRp58
ag1
(g9
g10
(lp59
F-0.02777777777777778
aF0.15555555555555564
aF0
atRp60
ag1
(g9
g10
(lp61
F-0.022222222222222227
aF0.17777777777777787
aF0
atRp62
ag1
(g9
g10
(lp63
F-0.011111111111111113
aF0.15555555555555564
aF0
atRp64
ag1
(g9
g10
(lp65
F-0.0055555555555555566
aF0.17777777777777787
aF0
atRp66
aa(lp67
g1
(g9
g10
(lp68
F0.0055555555555555566
aF0.022222222222222199
aF0
atRp69
ag1
(g9
g10
(lp70
F0.022222222222222223
aF0.022222222222222199
aF0
atRp71
ag1
(g9
g10
(lp72
F0.03888888888888889
aF0.022222222222222199
aF0
atRp73
ag1
(g9
g10
(lp74
F0.02777777777777778
aF0.044444444444444425
aF0
atRp75
ag1
(g9
g10
(lp76
F0.022222222222222227
aF0.088888888888888851
aF0
atRp77
ag1
(g9
g10
(lp78
F0.011111111111111112
aF0.044444444444444425
aF0
atRp79
ag1
(g9
g10
(lp80
F0.0055555555555555566
aF0.088888888888888851
aF0
atRp81
ag1
(g9
g10
(lp82
F0.011111111111111113
aF0.11111111111111105
aF0
atRp83
ag1
(g9
g10
(lp84
F0.0055555555555555566
aF0.1555555555555555
aF0
atRp85
aa(lp86
g1
(g9
g10
(lp87
F0.0055555555555555566
aF-0.17777777777777776
aF0
atRp88
ag1
(g9
g10
(lp89
F0.022222222222222223
aF-0.17777777777777776
aF0
atRp90
ag1
(g9
g10
(lp91
F0.03888888888888889
aF-0.17777777777777776
aF0
atRp92
ag1
(g9
g10
(lp93
F0.02777777777777778
aF-0.15555555555555553
aF0
atRp94
ag1
(g9
g10
(lp95
F0.022222222222222227
aF-0.1111111111111111
aF0
atRp96
ag1
(g9
g10
(lp97
F0.011111111111111112
aF-0.15555555555555553
aF0
atRp98
ag1
(g9
g10
(lp99
F0.0055555555555555566
aF-0.1111111111111111
aF0
atRp100
ag1
(g9
g10
(lp101
F0.011111111111111113
aF-0.088888888888888906
aF0
atRp102
ag1
(g9
g10
(lp103
F0.0055555555555555566
aF-0.044444444444444453
aF0
atRp104
aa(lp105
g1
(g9
g10
(lp106
F-0.03888888888888889
aF0.1777777777777777
aF0
atRp107
ag1
(g9
g10
(lp108
F-0.022222222222222227
aF0.11111111111111105
aF0
atRp109
ag1
(g9
g10
(lp110
F-0.0055555555555555566
aF0.044444444444444425
aF0
atRp111
ag1
(g9
g10
(lp112
F-0.011111111111111113
aF0.088888888888888851
aF0
atRp113
ag1
(g9
g10
(lp114
F-0.0055555555555555566
aF0.11111111111111105
aF0
atRp115
ag1
(g9
g10
(lp116
F-0.02777777777777778
aF0.1555555555555555
aF0
atRp117
ag1
(g9
g10
(lp118
F-0.022222222222222227
aF0.1777777777777777
aF0
atRp119
ag1
(g9
g10
(lp120
F-0.011111111111111113
aF0.1555555555555555
aF0
atRp121
ag1
(g9
g10
(lp122
F-0.0055555555555555566
aF0.1777777777777777
aF0
atRp123
aa(lp124
g1
(g9
g10
(lp125
F-0.0055555555555555566
aF0.022222222222222143
aF0
atRp126
ag1
(g9
g10
(lp127
F-0.0055555555555555566
aF0.088888888888888906
aF0
atRp128
ag1
(g9
g10
(lp129
F-0.0055555555555555566
aF0.15555555555555567
aF0
atRp130
ag1
(g9
g10
(lp131
F-0.011111111111111112
aF0.11111111111111116
aF0
atRp132
ag1
(g9
g10
(lp133
F-0.022222222222222223
aF0.088888888888888906
aF0
atRp134
ag1
(g9
g10
(lp135
F-0.011111111111111112
aF0.044444444444444509
aF0
atRp136
ag1
(g9
g10
(lp137
F-0.022222222222222223
aF0.022222222222222365
aF0
atRp138
ag1
(g9
g10
(lp139
F-0.027777777777777776
aF0.044444444444444509
aF0
atRp140
ag1
(g9
g10
(lp141
F-0.03888888888888889
aF0.022222222222222143
aF0
atRp142
aa(lp143
g1
(g9
g10
(lp144
F0.03888888888888889
aF0.17777777777777781
aF0
atRp145
ag1
(g9
g10
(lp146
F0.022222222222222227
aF0.17777777777777781
aF0
atRp147
ag1
(g9
g10
(lp148
F0.0055555555555555566
aF0.17777777777777781
aF0
atRp149
ag1
(g9
g10
(lp150
F0.011111111111111113
aF0.15555555555555567
aF0
atRp151
ag1
(g9
g10
(lp152
F0.0055555555555555566
aF0.11111111111111105
aF0
atRp153
ag1
(g9
g10
(lp154
F0.02777777777777778
aF0.15555555555555567
aF0
atRp155
ag1
(g9
g10
(lp156
F0.022222222222222227
aF0.11111111111111105
aF0
atRp157
ag1
(g9
g10
(lp158
F0.011111111111111113
aF0.088888888888888906
aF0
atRp159
ag1
(g9
g10
(lp160
F0.0055555555555555566
aF0.044444444444444509
aF0
atRp161
aa(lp162
g1
(g9
g10
(lp163
F-0.0055555555555555566
aF0.15555555555555553
aF0
atRp164
ag1
(g9
g10
(lp165
F-0.022222222222222223
aF0.088888888888888878
aF0
atRp166
ag1
(g9
g10
(lp167
F-0.03888888888888889
aF0.022222222222222227
aF0
atRp168
ag1
(g9
g10
(lp169
F-0.02777777777777778
aF0.044444444444444453
aF0
atRp170
ag1
(g9
g10
(lp171
F-0.022222222222222227
aF0.022222222222222227
aF0
atRp172
ag1
(g9
g10
(lp173
F-0.011111111111111112
aF0.11111111111111109
aF0
atRp174
ag1
(g9
g10
(lp175
F-0.0055555555555555566
aF0.088888888888888878
aF0
atRp176
ag1
(g9
g10
(lp177
F-0.011111111111111113
aF0.044444444444444453
aF0
atRp178
ag1
(g9
g10
(lp179
F-0.0055555555555555566
aF0.022222222222222227
aF0
atRp180
aa(lp181
g1
(g9
g10
(lp182
F0.0055555555555555566
aF0.044444444444444453
aF0
atRp183
ag1
(g9
g10
(lp184
F0.022222222222222223
aF0.11111111111111109
aF0
atRp185
ag1
(g9
g10
(lp186
F0.03888888888888889
aF0.17777777777777773
aF0
atRp187
ag1
(g9
g10
(lp188
F0.02777777777777778
aF0.15555555555555553
aF0
atRp189
ag1
(g9
g10
(lp190
F0.022222222222222227
aF0.17777777777777773
aF0
atRp191
ag1
(g9
g10
(lp192
F0.011111111111111112
aF0.088888888888888878
aF0
atRp193
ag1
(g9
g10
(lp194
F0.0055555555555555566
aF0.11111111111111109
aF0
atRp195
ag1
(g9
g10
(lp196
F0.011111111111111113
aF0.15555555555555553
aF0
atRp197
ag1
(g9
g10
(lp198
F0.0055555555555555566
aF0.17777777777777773
aF0
atRp199
aa(lp200
g1
(g9
g10
(lp201
F0.03888888888888889
aF0.022222222222222216
aF0
atRp202
ag1
(g9
g10
(lp203
F0.022222222222222227
aF0.088888888888888865
aF0
atRp204
ag1
(g9
g10
(lp205
F0.0055555555555555566
aF0.1555555555555555
aF0
atRp206
ag1
(g9
g10
(lp207
F0.011111111111111113
aF0.11111111111111108
aF0
atRp208
ag1
(g9
g10
(lp209
F0.0055555555555555566
aF0.088888888888888865
aF0
atRp210
ag1
(g9
g10
(lp211
F0.02777777777777778
aF0.044444444444444432
aF0
atRp212
ag1
(g9
g10
(lp213
F0.022222222222222227
aF0.022222222222222216
aF0
atRp214
ag1
(g9
g10
(lp215
F0.011111111111111113
aF0.044444444444444432
aF0
atRp216
ag1
(g9
g10
(lp217
F0.0055555555555555566
aF0.022222222222222216
aF0
atRp218
aa(lp219
g1
(g9
g10
(lp220
F0.03888888888888889
aF-0.022222222222222365
aF0
atRp221
ag1
(g9
g10
(lp222
F0.022222222222222227
aF-0.022222222222222365
aF0
atRp223
ag1
(g9
g10
(lp224
F0.0055555555555555566
aF-0.022222222222222365
aF0
atRp225
ag1
(g9
g10
(lp226
F0.011111111111111113
aF-0.04444444444444462
aF0
atRp227
ag1
(g9
g10
(lp228
F0.0055555555555555566
aF-0.088888888888889017
aF0
atRp229
ag1
(g9
g10
(lp230
F0.02777777777777778
aF-0.04444444444444462
aF0
atRp231
ag1
(g9
g10
(lp232
F0.022222222222222227
aF-0.088888888888889017
aF0
atRp233
ag1
(g9
g10
(lp234
F0.011111111111111113
aF-0.11111111111111116
aF0
atRp235
ag1
(g9
g10
(lp236
F0.0055555555555555566
aF-0.15555555555555567
aF0
atRp237
aa(lp238
g1
(g9
g10
(lp239
F0.03888888888888889
aF0.17777777777777781
aF0
atRp240
ag1
(g9
g10
(lp241
F0.022222222222222227
aF0.17777777777777781
aF0
atRp242
ag1
(g9
g10
(lp243
F0.0055555555555555566
aF0.17777777777777781
aF0
atRp244
ag1
(g9
g10
(lp245
F0.011111111111111113
aF0.15555555555555556
aF0
atRp246
ag1
(g9
g10
(lp247
F0.0055555555555555566
aF0.11111111111111116
aF0
atRp248
ag1
(g9
g10
(lp249
F0.02777777777777778
aF0.15555555555555556
aF0
atRp250
ag1
(g9
g10
(lp251
F0.022222222222222227
aF0.11111111111111116
aF0
atRp252
ag1
(g9
g10
(lp253
F0.011111111111111113
aF0.088888888888889017
aF0
atRp254
ag1
(g9
g10
(lp255
F0.0055555555555555566
aF0.044444444444444509
aF0
atRp256
aa(lp257
g1
(g9
g10
(lp258
F0.0055555555555555566
aF0.022222222222222254
aF0
atRp259
ag1
(g9
g10
(lp260
F0.022222222222222223
aF0.022222222222222254
aF0
atRp261
ag1
(g9
g10
(lp262
F0.03888888888888889
aF0.022222222222222254
aF0
atRp263
ag1
(g9
g10
(lp264
F0.02777777777777778
aF0.044444444444444509
aF0
atRp265
ag1
(g9
g10
(lp266
F0.022222222222222227
aF0.088888888888888906
aF0
atRp267
ag1
(g9
g10
(lp268
F0.011111111111111112
aF0.044444444444444509
aF0
atRp269
ag1
(g9
g10
(lp270
F0.0055555555555555566
aF0.088888888888888906
aF0
atRp271
ag1
(g9
g10
(lp272
F0.011111111111111113
aF0.11111111111111105
aF0
atRp273
ag1
(g9
g10
(lp274
F0.0055555555555555566
aF0.1555555555555555
aF0
atRp275
aa(lp276
g1
(g9
g10
(lp277
F0.0055555555555555566
aF-0.1777777777777777
aF0
atRp278
ag1
(g9
g10
(lp279
F0.022222222222222223
aF-0.1777777777777777
aF0
atRp280
ag1
(g9
g10
(lp281
F0.03888888888888889
aF-0.1777777777777777
aF0
atRp282
ag1
(g9
g10
(lp283
F0.02777777777777778
aF-0.15555555555555545
aF0
atRp284
ag1
(g9
g10
(lp285
F0.022222222222222227
aF-0.11111111111111105
aF0
atRp286
ag1
(g9
g10
(lp287
F0.011111111111111112
aF-0.15555555555555545
aF0
atRp288
ag1
(g9
g10
(lp289
F0.0055555555555555566
aF-0.11111111111111105
aF0
atRp290
ag1
(g9
g10
(lp291
F0.011111111111111113
aF-0.088888888888888906
aF0
atRp292
ag1
(g9
g10
(lp293
F0.0055555555555555566
aF-0.044444444444444453
aF0
atRp294
aa(lp295
g1
(g9
g10
(lp296
F0.0055555555555555566
aF-0.15555555555555556
aF0
atRp297
ag1
(g9
g10
(lp298
F0.022222222222222223
aF-0.088888888888888906
aF0
atRp299
ag1
(g9
g10
(lp300
F0.03888888888888889
aF-0.022222222222222254
aF0
atRp301
ag1
(g9
g10
(lp302
F0.02777777777777778
aF-0.044444444444444398
aF0
atRp303
ag1
(g9
g10
(lp304
F0.022222222222222227
aF-0.022222222222222254
aF0
atRp305
ag1
(g9
g10
(lp306
F0.011111111111111112
aF-0.11111111111111105
aF0
atRp307
ag1
(g9
g10
(lp308
F0.0055555555555555566
aF-0.088888888888888906
aF0
atRp309
ag1
(g9
g10
(lp310
F0.011111111111111113
aF-0.044444444444444398
aF0
atRp311
ag1
(g9
g10
(lp312
F0.0055555555555555566
aF-0.022222222222222254
aF0
atRp313
aa(lp314
g1
(g9
g10
(lp315
F-0.0055555555555555566
aF-0.15555555555555567
aF0
atRp316
ag1
(g9
g10
(lp317
F-0.0055555555555555566
aF-0.088888888888888906
aF0
atRp318
ag1
(g9
g10
(lp319
F-0.0055555555555555566
aF-0.022222222222222143
aF0
atRp320
ag1
(g9
g10
(lp321
F-0.011111111111111112
aF-0.044444444444444509
aF0
atRp322
ag1
(g9
g10
(lp323
F-0.022222222222222223
aF-0.022222222222222365
aF0
atRp324
ag1
(g9
g10
(lp325
F-0.011111111111111112
aF-0.11111111111111116
aF0
atRp326
ag1
(g9
g10
(lp327
F-0.022222222222222223
aF-0.088888888888888906
aF0
atRp328
ag1
(g9
g10
(lp329
F-0.027777777777777776
aF-0.044444444444444509
aF0
atRp330
ag1
(g9
g10
(lp331
F-0.03888888888888889
aF-0.022222222222222143
aF0
atRp332
aa(lp333
g1
(g9
g10
(lp334
F0.0055555555555555566
aF-0.17777777777777781
aF0
atRp335
ag1
(g9
g10
(lp336
F0.022222222222222223
aF-0.17777777777777781
aF0
atRp337
ag1
(g9
g10
(lp338
F0.03888888888888889
aF-0.17777777777777781
aF0
atRp339
ag1
(g9
g10
(lp340
F0.02777777777777778
aF-0.15555555555555567
aF0
atRp341
ag1
(g9
g10
(lp342
F0.022222222222222227
aF-0.11111111111111105
aF0
atRp343
ag1
(g9
g10
(lp344
F0.011111111111111112
aF-0.15555555555555567
aF0
atRp345
ag1
(g9
g10
(lp346
F0.0055555555555555566
aF-0.11111111111111105
aF0
atRp347
ag1
(g9
g10
(lp348
F0.011111111111111113
aF-0.088888888888888906
aF0
atRp349
ag1
(g9
g10
(lp350
F0.0055555555555555566
aF-0.044444444444444509
aF0
atRp351
aa(lp352
g1
(g9
g10
(lp353
F0.03888888888888889
aF-0.022222222222222254
aF0
atRp354
ag1
(g9
g10
(lp355
F0.022222222222222227
aF-0.022222222222222254
aF0
atRp356
ag1
(g9
g10
(lp357
F0.0055555555555555566
aF-0.022222222222222254
aF0
atRp358
ag1
(g9
g10
(lp359
F0.011111111111111113
aF-0.044444444444444509
aF0
atRp360
ag1
(g9
g10
(lp361
F0.0055555555555555566
aF-0.088888888888888795
aF0
atRp362
ag1
(g9
g10
(lp363
F0.02777777777777778
aF-0.044444444444444509
aF0
atRp364
ag1
(g9
g10
(lp365
F0.022222222222222227
aF-0.088888888888888795
aF0
atRp366
ag1
(g9
g10
(lp367
F0.011111111111111113
aF-0.11111111111111116
aF0
atRp368
ag1
(g9
g10
(lp369
F0.0055555555555555566
aF-0.15555555555555556
aF0
atRp370
aasS'triangle_minus'
p371
(lp372
I1
aI13
aI6
aI3
aI9
aI11
aI5
aI15
aI7
aI8
aI9
aI11
aI19
aI13
aI14
aI15
aI17
aI18
aI19
asS'x_extent'
p373
(lp374
F-0.025000000000000001
aF0.025000000000000001
asS'speed_of_light'
p375
F299.79245800034516
sS'edges_total'
p376
I19
sS'center_delta'
p377
(lp378
(lp379
g1
(g9
g10
(lp380
F0.022222222222222223
aF-0.044444444444444453
aF0
atRp381
ag1
(g9
g10
(lp382
F0.0055555555555555566
aF0.022222222222222199
aF0
atRp383
ag1
(g9
g10
(lp384
F-0.011111111111111112
aF0.088888888888888934
aF0
atRp385
ag1
(g9
g10
(lp386
F-0.0055555555555555549
aF0.044444444444444509
aF0
atRp387
ag1
(g9
g10
(lp388
F-0.011111111111111112
aF0.02222222222222231
aF0
atRp389
ag1
(g9
g10
(lp390
F0.011111111111111112
aF-0.022222222222222199
aF0
atRp391
ag1
(g9
g10
(lp392
F0.0055555555555555566
aF-0.044444444444444453
aF0
atRp393
ag1
(g9
g10
(lp394
F-0.0055555555555555549
aF-0.022222222222222199
aF0
atRp395
ag1
(g9
g10
(lp396
F-0.011111111111111112
aF-0.044444444444444453
aF0
atRp397
aa(lp398
g1
(g9
g10
(lp399
F-0.022222222222222223
aF0.044444444444444453
aF0
atRp400
ag1
(g9
g10
(lp401
F-0.0055555555555555566
aF-0.022222222222222199
aF0
atRp402
ag1
(g9
g10
(lp403
F0.011111111111111112
aF-0.088888888888889017
aF0
atRp404
ag1
(g9
g10
(lp405
F0.0055555555555555549
aF-0.044444444444444509
aF0
atRp406
ag1
(g9
g10
(lp407
F0.011111111111111112
aF-0.022222222222222254
aF0
atRp408
ag1
(g9
g10
(lp409
F-0.011111111111111112
aF0.022222222222222227
aF0
atRp410
ag1
(g9
g10
(lp411
F-0.0055555555555555566
aF0.044444444444444453
aF0
atRp412
ag1
(g9
g10
(lp413
F0.0055555555555555549
aF0.022222222222222227
aF0
atRp414
ag1
(g9
g10
(lp415
F0.011111111111111112
aF0.044444444444444453
aF0
atRp416
aa(lp417
g1
(g9
g10
(lp418
F-0.011111111111111112
aF-0.044444444444444453
aF0
atRp419
ag1
(g9
g10
(lp420
F0.0055555555555555549
aF-0.044444444444444453
aF0
atRp421
ag1
(g9
g10
(lp422
F0.022222222222222223
aF-0.044444444444444453
aF0
atRp423
ag1
(g9
g10
(lp424
F0.01111111111111111
aF-0.022222222222222227
aF0
atRp425
ag1
(g9
g10
(lp426
F0.0055555555555555566
aF0.022222222222222199
aF0
atRp427
ag1
(g9
g10
(lp428
F-0.0055555555555555566
aF-0.022222222222222227
aF0
atRp429
ag1
(g9
g10
(lp430
F-0.011111111111111112
aF0.022222222222222199
aF0
atRp431
ag1
(g9
g10
(lp432
F-0.0055555555555555549
aF0.044444444444444398
aF0
atRp433
ag1
(g9
g10
(lp434
F-0.011111111111111112
aF0.088888888888888851
aF0
atRp435
aa(lp436
g1
(g9
g10
(lp437
F-0.022222222222222223
aF0.044444444444444398
aF0
atRp438
ag1
(g9
g10
(lp439
F-0.0055555555555555566
aF-0.022222222222222254
aF0
atRp440
ag1
(g9
g10
(lp441
F0.011111111111111112
aF-0.088888888888888878
aF0
atRp442
ag1
(g9
g10
(lp443
F0.0055555555555555549
aF-0.044444444444444453
aF0
atRp444
ag1
(g9
g10
(lp445
F0.011111111111111112
aF-0.022222222222222254
aF0
atRp446
ag1
(g9
g10
(lp447
F-0.011111111111111112
aF0.022222222222222199
aF0
atRp448
ag1
(g9
g10
(lp449
F-0.0055555555555555566
aF0.044444444444444398
aF0
atRp450
ag1
(g9
g10
(lp451
F0.0055555555555555549
aF0.022222222222222199
aF0
atRp452
ag1
(g9
g10
(lp453
F0.011111111111111112
aF0.044444444444444398
aF0
atRp454
aa(lp455
g1
(g9
g10
(lp456
F0.011111111111111112
aF-0.04444444444444462
aF0
atRp457
ag1
(g9
g10
(lp458
F0.011111111111111112
aF0.022222222222222143
aF0
atRp459
ag1
(g9
g10
(lp460
F0.011111111111111112
aF0.088888888888888906
aF0
atRp461
ag1
(g9
g10
(lp462
F0.0055555555555555566
aF0.044444444444444398
aF0
atRp463
ag1
(g9
g10
(lp464
F-0.0055555555555555549
aF0.022222222222222143
aF0
atRp465
ag1
(g9
g10
(lp466
F0.0055555555555555566
aF-0.022222222222222254
aF0
atRp467
ag1
(g9
g10
(lp468
F-0.0055555555555555549
aF-0.044444444444444398
aF0
atRp469
ag1
(g9
g10
(lp470
F-0.01111111111111111
aF-0.022222222222222254
aF0
atRp471
ag1
(g9
g10
(lp472
F-0.02222222222222222
aF-0.04444444444444462
aF0
atRp473
aa(lp474
g1
(g9
g10
(lp475
F0.022222222222222223
aF0.044444444444444509
aF0
atRp476
ag1
(g9
g10
(lp477
F0.0055555555555555566
aF0.044444444444444509
aF0
atRp478
ag1
(g9
g10
(lp479
F-0.011111111111111112
aF0.044444444444444509
aF0
atRp480
ag1
(g9
g10
(lp481
F-0.0055555555555555549
aF0.022222222222222365
aF0
atRp482
ag1
(g9
g10
(lp483
F-0.011111111111111112
aF-0.022222222222222254
aF0
atRp484
ag1
(g9
g10
(lp485
F0.011111111111111112
aF0.022222222222222365
aF0
atRp486
ag1
(g9
g10
(lp487
F0.0055555555555555566
aF-0.022222222222222254
aF0
atRp488
ag1
(g9
g10
(lp489
F-0.0055555555555555549
aF-0.044444444444444398
aF0
atRp490
ag1
(g9
g10
(lp491
F-0.011111111111111112
aF-0.088888888888888795
aF0
atRp492
aa(lp493
g1
(g9
g10
(lp494
F0.011111111111111112
aF0.088888888888888878
aF0
atRp495
ag1
(g9
g10
(lp496
F-0.0055555555555555549
aF0.022222222222222227
aF0
atRp497
ag1
(g9
g10
(lp498
F-0.022222222222222223
aF-0.044444444444444425
aF0
atRp499
ag1
(g9
g10
(lp500
F-0.01111111111111111
aF-0.022222222222222199
aF0
atRp501
ag1
(g9
g10
(lp502
F-0.0055555555555555566
aF-0.044444444444444425
aF0
atRp503
ag1
(g9
g10
(lp504
F0.0055555555555555566
aF0.044444444444444439
aF0
atRp505
ag1
(g9
g10
(lp506
F0.011111111111111112
aF0.022222222222222227
aF0
atRp507
ag1
(g9
g10
(lp508
F0.0055555555555555549
aF-0.022222222222222199
aF0
atRp509
ag1
(g9
g10
(lp510
F0.011111111111111112
aF-0.044444444444444425
aF0
atRp511
aa(lp512
g1
(g9
g10
(lp513
F-0.011111111111111112
aF-0.088888888888888851
aF0
atRp514
ag1
(g9
g10
(lp515
F0.0055555555555555549
aF-0.022222222222222213
aF0
atRp516
ag1
(g9
g10
(lp517
F0.022222222222222223
aF0.044444444444444439
aF0
atRp518
ag1
(g9
g10
(lp519
F0.01111111111111111
aF0.02222222222222222
aF0
atRp520
ag1
(g9
g10
(lp521
F0.0055555555555555566
aF0.044444444444444439
aF0
atRp522
ag1
(g9
g10
(lp523
F-0.0055555555555555566
aF-0.044444444444444425
aF0
atRp524
ag1
(g9
g10
(lp525
F-0.011111111111111112
aF-0.022222222222222213
aF0
atRp526
ag1
(g9
g10
(lp527
F-0.0055555555555555549
aF0.02222222222222222
aF0
atRp528
ag1
(g9
g10
(lp529
F-0.011111111111111112
aF0.044444444444444439
aF0
atRp530
aa(lp531
g1
(g9
g10
(lp532
F0.022222222222222223
aF-0.044444444444444439
aF0
atRp533
ag1
(g9
g10
(lp534
F0.0055555555555555566
aF0.022222222222222213
aF0
atRp535
ag1
(g9
g10
(lp536
F-0.011111111111111112
aF0.088888888888888851
aF0
atRp537
ag1
(g9
g10
(lp538
F-0.0055555555555555549
aF0.044444444444444425
aF0
atRp539
ag1
(g9
g10
(lp540
F-0.011111111111111112
aF0.022222222222222213
aF0
atRp541
ag1
(g9
g10
(lp542
F0.011111111111111112
aF-0.02222222222222222
aF0
atRp543
ag1
(g9
g10
(lp544
F0.0055555555555555566
aF-0.044444444444444439
aF0
atRp545
ag1
(g9
g10
(lp546
F-0.0055555555555555549
aF-0.02222222222222222
aF0
atRp547
ag1
(g9
g10
(lp548
F-0.011111111111111112
aF-0.044444444444444439
aF0
atRp549
aa(lp550
g1
(g9
g10
(lp551
F0.011111111111111112
aF-0.088888888888888878
aF0
atRp552
ag1
(g9
g10
(lp553
F0.011111111111111112
aF-0.022222222222222227
aF0
atRp554
ag1
(g9
g10
(lp555
F0.011111111111111112
aF0.044444444444444425
aF0
atRp556
ag1
(g9
g10
(lp557
F0.0055555555555555566
aF0.022222222222222199
aF0
atRp558
ag1
(g9
g10
(lp559
F-0.0055555555555555549
aF0.044444444444444425
aF0
atRp560
ag1
(g9
g10
(lp561
F0.0055555555555555566
aF-0.044444444444444439
aF0
atRp562
ag1
(g9
g10
(lp563
F-0.0055555555555555549
aF-0.022222222222222227
aF0
atRp564
ag1
(g9
g10
(lp565
F-0.01111111111111111
aF0.022222222222222199
aF0
atRp566
ag1
(g9
g10
(lp567
F-0.02222222222222222
aF0.044444444444444425
aF0
atRp568
aa(lp569
g1
(g9
g10
(lp570
F0.022222222222222223
aF0.044444444444444398
aF0
atRp571
ag1
(g9
g10
(lp572
F0.0055555555555555566
aF0.044444444444444398
aF0
atRp573
ag1
(g9
g10
(lp574
F-0.011111111111111112
aF0.044444444444444398
aF0
atRp575
ag1
(g9
g10
(lp576
F-0.0055555555555555549
aF0.022222222222222143
aF0
atRp577
ag1
(g9
g10
(lp578
F-0.011111111111111112
aF-0.022222222222222254
aF0
atRp579
ag1
(g9
g10
(lp580
F0.011111111111111112
aF0.022222222222222143
aF0
atRp581
ag1
(g9
g10
(lp582
F0.0055555555555555566
aF-0.022222222222222254
aF0
atRp583
ag1
(g9
g10
(lp584
F-0.0055555555555555549
aF-0.044444444444444398
aF0
atRp585
ag1
(g9
g10
(lp586
F-0.011111111111111112
aF-0.088888888888888906
aF0
atRp587
aa(lp588
g1
(g9
g10
(lp589
F0.011111111111111112
aF0.088888888888888962
aF0
atRp590
ag1
(g9
g10
(lp591
F-0.0055555555555555549
aF0.022222222222222199
aF0
atRp592
ag1
(g9
g10
(lp593
F-0.022222222222222223
aF-0.044444444444444453
aF0
atRp594
ag1
(g9
g10
(lp595
F-0.01111111111111111
aF-0.022222222222222199
aF0
atRp596
ag1
(g9
g10
(lp597
F-0.0055555555555555566
aF-0.044444444444444509
aF0
atRp598
ag1
(g9
g10
(lp599
F0.0055555555555555566
aF0.044444444444444453
aF0
atRp600
ag1
(g9
g10
(lp601
F0.011111111111111112
aF0.022222222222222199
aF0
atRp602
ag1
(g9
g10
(lp603
F0.0055555555555555549
aF-0.022222222222222199
aF0
atRp604
ag1
(g9
g10
(lp605
F0.011111111111111112
aF-0.044444444444444453
aF0
atRp606
aa(lp607
g1
(g9
g10
(lp608
F-0.011111111111111112
aF-0.044444444444444398
aF0
atRp609
ag1
(g9
g10
(lp610
F0.0055555555555555549
aF-0.044444444444444398
aF0
atRp611
ag1
(g9
g10
(lp612
F0.022222222222222223
aF-0.044444444444444398
aF0
atRp613
ag1
(g9
g10
(lp614
F0.01111111111111111
aF-0.022222222222222143
aF0
atRp615
ag1
(g9
g10
(lp616
F0.0055555555555555566
aF0.022222222222222254
aF0
atRp617
ag1
(g9
g10
(lp618
F-0.0055555555555555566
aF-0.022222222222222143
aF0
atRp619
ag1
(g9
g10
(lp620
F-0.011111111111111112
aF0.022222222222222254
aF0
atRp621
ag1
(g9
g10
(lp622
F-0.0055555555555555549
aF0.044444444444444398
aF0
atRp623
ag1
(g9
g10
(lp624
F-0.011111111111111112
aF0.088888888888888851
aF0
atRp625
aa(lp626
g1
(g9
g10
(lp627
F0.011111111111111112
aF-0.088888888888888851
aF0
atRp628
ag1
(g9
g10
(lp629
F0.011111111111111112
aF-0.022222222222222199
aF0
atRp630
ag1
(g9
g10
(lp631
F0.011111111111111112
aF0.044444444444444453
aF0
atRp632
ag1
(g9
g10
(lp633
F0.0055555555555555566
aF0.022222222222222199
aF0
atRp634
ag1
(g9
g10
(lp635
F-0.0055555555555555549
aF0.044444444444444453
aF0
atRp636
ag1
(g9
g10
(lp637
F0.0055555555555555566
aF-0.044444444444444453
aF0
atRp638
ag1
(g9
g10
(lp639
F-0.0055555555555555549
aF-0.022222222222222199
aF0
atRp640
ag1
(g9
g10
(lp641
F-0.01111111111111111
aF0.022222222222222199
aF0
atRp642
ag1
(g9
g10
(lp643
F-0.02222222222222222
aF0.044444444444444453
aF0
atRp644
aa(lp645
g1
(g9
g10
(lp646
F-0.011111111111111112
aF-0.088888888888888906
aF0
atRp647
ag1
(g9
g10
(lp648
F0.0055555555555555549
aF-0.022222222222222254
aF0
atRp649
ag1
(g9
g10
(lp650
F0.022222222222222223
aF0.044444444444444398
aF0
atRp651
ag1
(g9
g10
(lp652
F0.01111111111111111
aF0.022222222222222254
aF0
atRp653
ag1
(g9
g10
(lp654
F0.0055555555555555566
aF0.044444444444444398
aF0
atRp655
ag1
(g9
g10
(lp656
F-0.0055555555555555566
aF-0.044444444444444398
aF0
atRp657
ag1
(g9
g10
(lp658
F-0.011111111111111112
aF-0.022222222222222254
aF0
atRp659
ag1
(g9
g10
(lp660
F-0.0055555555555555549
aF0.022222222222222254
aF0
atRp661
ag1
(g9
g10
(lp662
F-0.011111111111111112
aF0.044444444444444398
aF0
atRp663
aa(lp664
g1
(g9
g10
(lp665
F0.011111111111111112
aF-0.044444444444444398
aF0
atRp666
ag1
(g9
g10
(lp667
F0.011111111111111112
aF0.022222222222222143
aF0
atRp668
ag1
(g9
g10
(lp669
F0.011111111111111112
aF0.088888888888888906
aF0
atRp670
ag1
(g9
g10
(lp671
F0.0055555555555555566
aF0.044444444444444509
aF0
atRp672
ag1
(g9
g10
(lp673
F-0.0055555555555555549
aF0.022222222222222365
aF0
atRp674
ag1
(g9
g10
(lp675
F0.0055555555555555566
aF-0.022222222222222143
aF0
atRp676
ag1
(g9
g10
(lp677
F-0.0055555555555555549
aF-0.044444444444444398
aF0
atRp678
ag1
(g9
g10
(lp679
F-0.01111111111111111
aF-0.022222222222222143
aF0
atRp680
ag1
(g9
g10
(lp681
F-0.02222222222222222
aF-0.044444444444444398
aF0
atRp682
aa(lp683
g1
(g9
g10
(lp684
F0.011111111111111112
aF-0.088888888888888906
aF0
atRp685
ag1
(g9
g10
(lp686
F0.011111111111111112
aF-0.022222222222222143
aF0
atRp687
ag1
(g9
g10
(lp688
F0.011111111111111112
aF0.04444444444444462
aF0
atRp689
ag1
(g9
g10
(lp690
F0.0055555555555555566
aF0.022222222222222254
aF0
atRp691
ag1
(g9
g10
(lp692
F-0.0055555555555555549
aF0.044444444444444398
aF0
atRp693
ag1
(g9
g10
(lp694
F0.0055555555555555566
aF-0.044444444444444398
aF0
atRp695
ag1
(g9
g10
(lp696
F-0.0055555555555555549
aF-0.022222222222222143
aF0
atRp697
ag1
(g9
g10
(lp698
F-0.01111111111111111
aF0.022222222222222254
aF0
atRp699
ag1
(g9
g10
(lp700
F-0.02222222222222222
aF0.04444444444444462
aF0
atRp701
aa(lp702
g1
(g9
g10
(lp703
F-0.011111111111111112
aF-0.044444444444444509
aF0
atRp704
ag1
(g9
g10
(lp705
F0.0055555555555555549
aF-0.044444444444444509
aF0
atRp706
ag1
(g9
g10
(lp707
F0.022222222222222223
aF-0.044444444444444509
aF0
atRp708
ag1
(g9
g10
(lp709
F0.01111111111111111
aF-0.022222222222222365
aF0
atRp710
ag1
(g9
g10
(lp711
F0.0055555555555555566
aF0.022222222222222254
aF0
atRp712
ag1
(g9
g10
(lp713
F-0.0055555555555555566
aF-0.022222222222222365
aF0
atRp714
ag1
(g9
g10
(lp715
F-0.011111111111111112
aF0.022222222222222254
aF0
atRp716
ag1
(g9
g10
(lp717
F-0.0055555555555555549
aF0.044444444444444398
aF0
atRp718
ag1
(g9
g10
(lp719
F-0.011111111111111112
aF0.088888888888888795
aF0
atRp720
aa(lp721
g1
(g9
g10
(lp722
F0.022222222222222223
aF0.044444444444444398
aF0
atRp723
ag1
(g9
g10
(lp724
F0.0055555555555555566
aF0.044444444444444398
aF0
atRp725
ag1
(g9
g10
(lp726
F-0.011111111111111112
aF0.044444444444444398
aF0
atRp727
ag1
(g9
g10
(lp728
F-0.0055555555555555549
aF0.022222222222222143
aF0
atRp729
ag1
(g9
g10
(lp730
F-0.011111111111111112
aF-0.022222222222222143
aF0
atRp731
ag1
(g9
g10
(lp732
F0.011111111111111112
aF0.022222222222222143
aF0
atRp733
ag1
(g9
g10
(lp734
F0.0055555555555555566
aF-0.022222222222222143
aF0
atRp735
ag1
(g9
g10
(lp736
F-0.0055555555555555549
aF-0.044444444444444509
aF0
atRp737
ag1
(g9
g10
(lp738
F-0.011111111111111112
aF-0.088888888888888906
aF0
atRp739
aa(lp740
g1
(g9
g10
(lp741
F0.011111111111111112
aF-0.044444444444444398
aF0
atRp742
ag1
(g9
g10
(lp743
F0.011111111111111112
aF0.022222222222222254
aF0
atRp744
ag1
(g9
g10
(lp745
F0.011111111111111112
aF0.088888888888888906
aF0
atRp746
ag1
(g9
g10
(lp747
F0.0055555555555555566
aF0.044444444444444398
aF0
atRp748
ag1
(g9
g10
(lp749
F-0.0055555555555555549
aF0.022222222222222254
aF0
atRp750
ag1
(g9
g10
(lp751
F0.0055555555555555566
aF-0.022222222222222143
aF0
atRp752
ag1
(g9
g10
(lp753
F-0.0055555555555555549
aF-0.044444444444444398
aF0
atRp754
ag1
(g9
g10
(lp755
F-0.01111111111111111
aF-0.022222222222222143
aF0
atRp756
ag1
(g9
g10
(lp757
F-0.02222222222222222
aF-0.044444444444444398
aF0
atRp758
aasS'area'
p759
(lp760
F0.0050000000000000018
aF0.0050000000000000018
aF0.0049999999999999992
aF0.0049999999999999992
aF0.0049999999999999992
aF0.0049999999999999992
aF0.0049999999999999992
aF0.0049999999999999992
aF0.0049999999999999992
aF0.0049999999999999992
aF0.0050000000000000044
aF0.0050000000000000044
aF0.0049999999999999992
aF0.0049999999999999992
aF0.0050000000000000018
aF0.0050000000000000018
aF0.0049999999999999992
aF0.0049999999999999992
aF0.0049999999999999992
aF0.0049999999999999992
asS'dlist'
p761
(F0.050000000000000003
I2
I1
I10
tp762
sS'center_'
p763
(lp764
(g1
(g9
g10
(lp765
F0.01388888888888889
aF-0.37777777777777777
aF0
atRp766
g1
(g9
g10
(lp767
F-0.0027777777777777766
aF-0.31111111111111112
aF0
atRp768
g1
(g9
g10
(lp769
F-0.019444444444444445
aF-0.24444444444444438
aF0
atRp770
g1
(g9
g10
(lp771
F-0.013888888888888888
aF-0.28888888888888881
aF0
atRp772
g1
(g9
g10
(lp773
F-0.019444444444444445
aF-0.31111111111111101
aF0
atRp774
g1
(g9
g10
(lp775
F0.0027777777777777788
aF-0.35555555555555551
aF0
atRp776
g1
(g9
g10
(lp777
F-0.0027777777777777766
aF-0.37777777777777777
aF0
atRp778
g1
(g9
g10
(lp779
F-0.013888888888888888
aF-0.35555555555555551
aF0
atRp780
g1
(g9
g10
(lp781
F-0.019444444444444445
aF-0.37777777777777777
aF0
atRp782
tp783
a(g1
(g9
g10
(lp784
F-0.01388888888888889
aF-0.22222222222222215
aF0
atRp785
g1
(g9
g10
(lp786
F0.0027777777777777766
aF-0.28888888888888881
aF0
atRp787
g1
(g9
g10
(lp788
F0.019444444444444445
aF-0.35555555555555562
aF0
atRp789
g1
(g9
g10
(lp790
F0.013888888888888888
aF-0.31111111111111112
aF0
atRp791
g1
(g9
g10
(lp792
F0.019444444444444445
aF-0.28888888888888886
aF0
atRp793
g1
(g9
g10
(lp794
F-0.0027777777777777788
aF-0.24444444444444438
aF0
atRp795
g1
(g9
g10
(lp796
F0.0027777777777777766
aF-0.22222222222222215
aF0
atRp797
g1
(g9
g10
(lp798
F0.013888888888888888
aF-0.24444444444444438
aF0
atRp799
g1
(g9
g10
(lp800
F0.019444444444444445
aF-0.22222222222222215
aF0
atRp801
tp802
a(g1
(g9
g10
(lp803
F-0.019444444444444445
aF0.22222222222222215
aF0
atRp804
g1
(g9
g10
(lp805
F-0.0027777777777777788
aF0.22222222222222215
aF0
atRp806
g1
(g9
g10
(lp807
F0.01388888888888889
aF0.22222222222222215
aF0
atRp808
g1
(g9
g10
(lp809
F0.0027777777777777775
aF0.24444444444444438
aF0
atRp810
g1
(g9
g10
(lp811
F-0.0027777777777777766
aF0.28888888888888881
aF0
atRp812
g1
(g9
g10
(lp813
F-0.01388888888888889
aF0.24444444444444438
aF0
atRp814
g1
(g9
g10
(lp815
F-0.019444444444444445
aF0.28888888888888881
aF0
atRp816
g1
(g9
g10
(lp817
F-0.013888888888888888
aF0.31111111111111101
aF0
atRp818
g1
(g9
g10
(lp819
F-0.019444444444444445
aF0.35555555555555546
aF0
atRp820
tp821
a(g1
(g9
g10
(lp822
F-0.01388888888888889
aF0.37777777777777766
aF0
atRp823
g1
(g9
g10
(lp824
F0.0027777777777777766
aF0.31111111111111101
aF0
atRp825
g1
(g9
g10
(lp826
F0.019444444444444445
aF0.24444444444444438
aF0
atRp827
g1
(g9
g10
(lp828
F0.013888888888888888
aF0.28888888888888881
aF0
atRp829
g1
(g9
g10
(lp830
F0.019444444444444445
aF0.31111111111111101
aF0
atRp831
g1
(g9
g10
(lp832
F-0.0027777777777777788
aF0.35555555555555546
aF0
atRp833
g1
(g9
g10
(lp834
F0.0027777777777777766
aF0.37777777777777766
aF0
atRp835
g1
(g9
g10
(lp836
F0.013888888888888888
aF0.35555555555555546
aF0
atRp837
g1
(g9
g10
(lp838
F0.019444444444444445
aF0.37777777777777766
aF0
atRp839
tp840
a(g1
(g9
g10
(lp841
F0.019444444444444445
aF-0.97777777777777786
aF0
atRp842
g1
(g9
g10
(lp843
F0.019444444444444445
aF-0.91111111111111109
aF0
atRp844
g1
(g9
g10
(lp845
F0.019444444444444445
aF-0.84444444444444433
aF0
atRp846
g1
(g9
g10
(lp847
F0.01388888888888889
aF-0.88888888888888884
aF0
atRp848
g1
(g9
g10
(lp849
F0.0027777777777777788
aF-0.91111111111111109
aF0
atRp850
g1
(g9
g10
(lp851
F0.01388888888888889
aF-0.95555555555555549
aF0
atRp852
g1
(g9
g10
(lp853
F0.0027777777777777788
aF-0.97777777777777763
aF0
atRp854
g1
(g9
g10
(lp855
F-0.0027777777777777766
aF-0.95555555555555549
aF0
atRp856
g1
(g9
g10
(lp857
F-0.013888888888888888
aF-0.97777777777777786
aF0
atRp858
tp859
a(g1
(g9
g10
(lp860
F0.01388888888888889
aF-0.82222222222222219
aF0
atRp861
g1
(g9
g10
(lp862
F-0.0027777777777777766
aF-0.82222222222222219
aF0
atRp863
g1
(g9
g10
(lp864
F-0.019444444444444445
aF-0.82222222222222219
aF0
atRp865
g1
(g9
g10
(lp866
F-0.013888888888888888
aF-0.84444444444444433
aF0
atRp867
g1
(g9
g10
(lp868
F-0.019444444444444445
aF-0.88888888888888895
aF0
atRp869
g1
(g9
g10
(lp870
F0.0027777777777777788
aF-0.84444444444444433
aF0
atRp871
g1
(g9
g10
(lp872
F-0.0027777777777777766
aF-0.88888888888888895
aF0
atRp873
g1
(g9
g10
(lp874
F-0.013888888888888888
aF-0.91111111111111109
aF0
atRp875
g1
(g9
g10
(lp876
F-0.019444444444444445
aF-0.95555555555555549
aF0
atRp877
tp878
a(g1
(g9
g10
(lp879
F0.019444444444444445
aF-0.044444444444444432
aF0
atRp880
g1
(g9
g10
(lp881
F0.0027777777777777788
aF-0.11111111111111108
aF0
atRp882
g1
(g9
g10
(lp883
F-0.01388888888888889
aF-0.17777777777777773
aF0
atRp884
g1
(g9
g10
(lp885
F-0.0027777777777777775
aF-0.1555555555555555
aF0
atRp886
g1
(g9
g10
(lp887
F0.0027777777777777766
aF-0.17777777777777773
aF0
atRp888
g1
(g9
g10
(lp889
F0.01388888888888889
aF-0.088888888888888865
aF0
atRp890
g1
(g9
g10
(lp891
F0.019444444444444445
aF-0.11111111111111108
aF0
atRp892
g1
(g9
g10
(lp893
F0.013888888888888888
aF-0.1555555555555555
aF0
atRp894
g1
(g9
g10
(lp895
F0.019444444444444445
aF-0.17777777777777773
aF0
atRp896
tp897
a(g1
(g9
g10
(lp898
F-0.019444444444444445
aF-0.1555555555555555
aF0
atRp899
g1
(g9
g10
(lp900
F-0.0027777777777777788
aF-0.088888888888888865
aF0
atRp901
g1
(g9
g10
(lp902
F0.01388888888888889
aF-0.022222222222222216
aF0
atRp903
g1
(g9
g10
(lp904
F0.0027777777777777775
aF-0.044444444444444432
aF0
atRp905
g1
(g9
g10
(lp906
F-0.0027777777777777766
aF-0.022222222222222216
aF0
atRp907
g1
(g9
g10
(lp908
F-0.01388888888888889
aF-0.11111111111111108
aF0
atRp909
g1
(g9
g10
(lp910
F-0.019444444444444445
aF-0.088888888888888865
aF0
atRp911
g1
(g9
g10
(lp912
F-0.013888888888888888
aF-0.044444444444444432
aF0
atRp913
g1
(g9
g10
(lp914
F-0.019444444444444445
aF-0.022222222222222216
aF0
atRp915
tp916
a(g1
(g9
g10
(lp917
F0.01388888888888889
aF0.022222222222222216
aF0
atRp918
g1
(g9
g10
(lp919
F-0.0027777777777777766
aF0.088888888888888865
aF0
atRp920
g1
(g9
g10
(lp921
F-0.019444444444444445
aF0.1555555555555555
aF0
atRp922
g1
(g9
g10
(lp923
F-0.013888888888888888
aF0.11111111111111108
aF0
atRp924
g1
(g9
g10
(lp925
F-0.019444444444444445
aF0.088888888888888865
aF0
atRp926
g1
(g9
g10
(lp927
F0.0027777777777777788
aF0.044444444444444432
aF0
atRp928
g1
(g9
g10
(lp929
F-0.0027777777777777766
aF0.022222222222222216
aF0
atRp930
g1
(g9
g10
(lp931
F-0.013888888888888888
aF0.044444444444444432
aF0
atRp932
g1
(g9
g10
(lp933
F-0.019444444444444445
aF0.022222222222222216
aF0
atRp934
tp935
a(g1
(g9
g10
(lp936
F0.019444444444444445
aF0.044444444444444432
aF0
atRp937
g1
(g9
g10
(lp938
F0.019444444444444445
aF0.11111111111111108
aF0
atRp939
g1
(g9
g10
(lp940
F0.019444444444444445
aF0.17777777777777773
aF0
atRp941
g1
(g9
g10
(lp942
F0.01388888888888889
aF0.1555555555555555
aF0
atRp943
g1
(g9
g10
(lp944
F0.0027777777777777788
aF0.17777777777777773
aF0
atRp945
g1
(g9
g10
(lp946
F0.01388888888888889
aF0.088888888888888865
aF0
atRp947
g1
(g9
g10
(lp948
F0.0027777777777777788
aF0.11111111111111108
aF0
atRp949
g1
(g9
g10
(lp950
F-0.0027777777777777766
aF0.1555555555555555
aF0
atRp951
g1
(g9
g10
(lp952
F-0.013888888888888888
aF0.17777777777777773
aF0
atRp953
tp954
a(g1
(g9
g10
(lp955
F0.01388888888888889
aF0.57777777777777772
aF0
atRp956
g1
(g9
g10
(lp957
F-0.0027777777777777766
aF0.57777777777777772
aF0
atRp958
g1
(g9
g10
(lp959
F-0.019444444444444445
aF0.57777777777777772
aF0
atRp960
g1
(g9
g10
(lp961
F-0.013888888888888888
aF0.55555555555555547
aF0
atRp962
g1
(g9
g10
(lp963
F-0.019444444444444445
aF0.51111111111111107
aF0
atRp964
g1
(g9
g10
(lp965
F0.0027777777777777788
aF0.55555555555555547
aF0
atRp966
g1
(g9
g10
(lp967
F-0.0027777777777777766
aF0.51111111111111107
aF0
atRp968
g1
(g9
g10
(lp969
F-0.013888888888888888
aF0.48888888888888893
aF0
atRp970
g1
(g9
g10
(lp971
F-0.019444444444444445
aF0.44444444444444442
aF0
atRp972
tp973
a(g1
(g9
g10
(lp974
F0.019444444444444445
aF0.55555555555555558
aF0
atRp975
g1
(g9
g10
(lp976
F0.0027777777777777788
aF0.48888888888888882
aF0
atRp977
g1
(g9
g10
(lp978
F-0.01388888888888889
aF0.42222222222222217
aF0
atRp979
g1
(g9
g10
(lp980
F-0.0027777777777777775
aF0.44444444444444442
aF0
atRp981
g1
(g9
g10
(lp982
F0.0027777777777777766
aF0.42222222222222211
aF0
atRp983
g1
(g9
g10
(lp984
F0.01388888888888889
aF0.51111111111111107
aF0
atRp985
g1
(g9
g10
(lp986
F0.019444444444444445
aF0.48888888888888882
aF0
atRp987
g1
(g9
g10
(lp988
F0.013888888888888888
aF0.44444444444444442
aF0
atRp989
g1
(g9
g10
(lp990
F0.019444444444444445
aF0.42222222222222217
aF0
atRp991
tp992
a(g1
(g9
g10
(lp993
F-0.019444444444444445
aF-0.57777777777777772
aF0
atRp994
g1
(g9
g10
(lp995
F-0.0027777777777777788
aF-0.57777777777777772
aF0
atRp996
g1
(g9
g10
(lp997
F0.01388888888888889
aF-0.57777777777777772
aF0
atRp998
g1
(g9
g10
(lp999
F0.0027777777777777775
aF-0.55555555555555547
aF0
atRp1000
g1
(g9
g10
(lp1001
F-0.0027777777777777766
aF-0.51111111111111107
aF0
atRp1002
g1
(g9
g10
(lp1003
F-0.01388888888888889
aF-0.55555555555555547
aF0
atRp1004
g1
(g9
g10
(lp1005
F-0.019444444444444445
aF-0.51111111111111107
aF0
atRp1006
g1
(g9
g10
(lp1007
F-0.013888888888888888
aF-0.48888888888888893
aF0
atRp1008
g1
(g9
g10
(lp1009
F-0.019444444444444445
aF-0.44444444444444448
aF0
atRp1010
tp1011
a(g1
(g9
g10
(lp1012
F0.019444444444444445
aF-0.55555555555555547
aF0
atRp1013
g1
(g9
g10
(lp1014
F0.019444444444444445
aF-0.48888888888888882
aF0
atRp1015
g1
(g9
g10
(lp1016
F0.019444444444444445
aF-0.42222222222222217
aF0
atRp1017
g1
(g9
g10
(lp1018
F0.01388888888888889
aF-0.44444444444444442
aF0
atRp1019
g1
(g9
g10
(lp1020
F0.0027777777777777788
aF-0.42222222222222217
aF0
atRp1021
g1
(g9
g10
(lp1022
F0.01388888888888889
aF-0.51111111111111107
aF0
atRp1023
g1
(g9
g10
(lp1024
F0.0027777777777777788
aF-0.48888888888888882
aF0
atRp1025
g1
(g9
g10
(lp1026
F-0.0027777777777777766
aF-0.44444444444444442
aF0
atRp1027
g1
(g9
g10
(lp1028
F-0.013888888888888888
aF-0.42222222222222217
aF0
atRp1029
tp1030
a(g1
(g9
g10
(lp1031
F-0.019444444444444445
aF-0.75555555555555554
aF0
atRp1032
g1
(g9
g10
(lp1033
F-0.0027777777777777788
aF-0.68888888888888888
aF0
atRp1034
g1
(g9
g10
(lp1035
F0.01388888888888889
aF-0.62222222222222223
aF0
atRp1036
g1
(g9
g10
(lp1037
F0.0027777777777777775
aF-0.64444444444444438
aF0
atRp1038
g1
(g9
g10
(lp1039
F-0.0027777777777777766
aF-0.62222222222222223
aF0
atRp1040
g1
(g9
g10
(lp1041
F-0.01388888888888889
aF-0.71111111111111103
aF0
atRp1042
g1
(g9
g10
(lp1043
F-0.019444444444444445
aF-0.68888888888888888
aF0
atRp1044
g1
(g9
g10
(lp1045
F-0.013888888888888888
aF-0.64444444444444438
aF0
atRp1046
g1
(g9
g10
(lp1047
F-0.019444444444444445
aF-0.62222222222222223
aF0
atRp1048
tp1049
a(g1
(g9
g10
(lp1050
F0.019444444444444445
aF-0.77777777777777779
aF0
atRp1051
g1
(g9
g10
(lp1052
F0.019444444444444445
aF-0.71111111111111125
aF0
atRp1053
g1
(g9
g10
(lp1054
F0.019444444444444445
aF-0.64444444444444449
aF0
atRp1055
g1
(g9
g10
(lp1056
F0.01388888888888889
aF-0.68888888888888888
aF0
atRp1057
g1
(g9
g10
(lp1058
F0.0027777777777777788
aF-0.71111111111111103
aF0
atRp1059
g1
(g9
g10
(lp1060
F0.01388888888888889
aF-0.75555555555555554
aF0
atRp1061
g1
(g9
g10
(lp1062
F0.0027777777777777788
aF-0.77777777777777779
aF0
atRp1063
g1
(g9
g10
(lp1064
F-0.0027777777777777766
aF-0.75555555555555554
aF0
atRp1065
g1
(g9
g10
(lp1066
F-0.013888888888888888
aF-0.77777777777777779
aF0
atRp1067
tp1068
a(g1
(g9
g10
(lp1069
F0.019444444444444445
aF0.84444444444444433
aF0
atRp1070
g1
(g9
g10
(lp1071
F0.019444444444444445
aF0.91111111111111109
aF0
atRp1072
g1
(g9
g10
(lp1073
F0.019444444444444445
aF0.97777777777777786
aF0
atRp1074
g1
(g9
g10
(lp1075
F0.01388888888888889
aF0.95555555555555549
aF0
atRp1076
g1
(g9
g10
(lp1077
F0.0027777777777777788
aF0.97777777777777763
aF0
atRp1078
g1
(g9
g10
(lp1079
F0.01388888888888889
aF0.88888888888888884
aF0
atRp1080
g1
(g9
g10
(lp1081
F0.0027777777777777788
aF0.91111111111111109
aF0
atRp1082
g1
(g9
g10
(lp1083
F-0.0027777777777777766
aF0.95555555555555549
aF0
atRp1084
g1
(g9
g10
(lp1085
F-0.013888888888888888
aF0.97777777777777786
aF0
atRp1086
tp1087
a(g1
(g9
g10
(lp1088
F-0.019444444444444445
aF0.82222222222222219
aF0
atRp1089
g1
(g9
g10
(lp1090
F-0.0027777777777777788
aF0.82222222222222219
aF0
atRp1091
g1
(g9
g10
(lp1092
F0.01388888888888889
aF0.82222222222222219
aF0
atRp1093
g1
(g9
g10
(lp1094
F0.0027777777777777775
aF0.84444444444444433
aF0
atRp1095
g1
(g9
g10
(lp1096
F-0.0027777777777777766
aF0.88888888888888895
aF0
atRp1097
g1
(g9
g10
(lp1098
F-0.01388888888888889
aF0.84444444444444433
aF0
atRp1099
g1
(g9
g10
(lp1100
F-0.019444444444444445
aF0.88888888888888895
aF0
atRp1101
g1
(g9
g10
(lp1102
F-0.013888888888888888
aF0.91111111111111109
aF0
atRp1103
g1
(g9
g10
(lp1104
F-0.019444444444444445
aF0.95555555555555549
aF0
atRp1105
tp1106
a(g1
(g9
g10
(lp1107
F0.01388888888888889
aF0.77777777777777779
aF0
atRp1108
g1
(g9
g10
(lp1109
F-0.0027777777777777766
aF0.77777777777777779
aF0
atRp1110
g1
(g9
g10
(lp1111
F-0.019444444444444445
aF0.77777777777777779
aF0
atRp1112
g1
(g9
g10
(lp1113
F-0.013888888888888888
aF0.75555555555555554
aF0
atRp1114
g1
(g9
g10
(lp1115
F-0.019444444444444445
aF0.71111111111111125
aF0
atRp1116
g1
(g9
g10
(lp1117
F0.0027777777777777788
aF0.75555555555555554
aF0
atRp1118
g1
(g9
g10
(lp1119
F-0.0027777777777777766
aF0.71111111111111125
aF0
atRp1120
g1
(g9
g10
(lp1121
F-0.013888888888888888
aF0.68888888888888888
aF0
atRp1122
g1
(g9
g10
(lp1123
F-0.019444444444444445
aF0.64444444444444449
aF0
atRp1124
tp1125
a(g1
(g9
g10
(lp1126
F0.019444444444444445
aF0.62222222222222223
aF0
atRp1127
g1
(g9
g10
(lp1128
F0.019444444444444445
aF0.68888888888888888
aF0
atRp1129
g1
(g9
g10
(lp1130
F0.019444444444444445
aF0.75555555555555554
aF0
atRp1131
g1
(g9
g10
(lp1132
F0.01388888888888889
aF0.71111111111111103
aF0
atRp1133
g1
(g9
g10
(lp1134
F0.0027777777777777788
aF0.68888888888888888
aF0
atRp1135
g1
(g9
g10
(lp1136
F0.01388888888888889
aF0.64444444444444449
aF0
atRp1137
g1
(g9
g10
(lp1138
F0.0027777777777777788
aF0.62222222222222223
aF0
atRp1139
g1
(g9
g10
(lp1140
F-0.0027777777777777766
aF0.64444444444444449
aF0
atRp1141
g1
(g9
g10
(lp1142
F-0.013888888888888888
aF0.62222222222222223
aF0
atRp1143
tp1144
asS'eta'
p1145
F376.73031346220444
sS'FactorA'
p1146
(lp1147
c__builtin__
complex
p1148
(F0
F0.032382795858537983
tRp1149
ag1148
(F0
F0.0078539816339744835
tRp1150
ag1148
(F0
F0.0078539816339744835
tRp1151
ag1148
(F0
F0.032382795858537969
tRp1152
ag1148
(F0
F0.0078539816339744835
tRp1153
ag1148
(F0
F0.0078539816339744835
tRp1154
ag1148
(F0
F0.032382795858537969
tRp1155
ag1148
(F0
F0.0078539816339744835
tRp1156
ag1148
(F0
F0.032382795858537969
tRp1157
ag1148
(F0
F0.0078539816339744835
tRp1158
ag1148
(F0
F0.032382795858537969
tRp1159
ag1148
(F0
F0.032382795858538004
tRp1160
ag1148
(F0
F0.0078539816339744835
tRp1161
ag1148
(F0
F0.032382795858537969
tRp1162
ag1148
(F0
F0.0078539816339744835
tRp1163
ag1148
(F0
F0.032382795858537983
tRp1164
ag1148
(F0
F0.032382795858537969
tRp1165
ag1148
(F0
F0.0078539816339744835
tRp1166
ag1148
(F0
F0.032382795858537969
tRp1167
asS'rho__minus'
p1168
(lp1169
(lp1170
g1
(g9
g10
(lp1171
F0.03888888888888889
aF0.022222222222222199
aF0
atRp1172
ag1
(g9
g10
(lp1173
F0.022222222222222227
aF0.088888888888888851
aF0
atRp1174
ag1
(g9
g10
(lp1175
F0.0055555555555555566
aF0.15555555555555567
aF0
atRp1176
ag1
(g9
g10
(lp1177
F0.011111111111111113
aF0.11111111111111116
aF0
atRp1178
ag1
(g9
g10
(lp1179
F0.0055555555555555566
aF0.088888888888888906
aF0
atRp1180
ag1
(g9
g10
(lp1181
F0.02777777777777778
aF0.044444444444444425
aF0
atRp1182
ag1
(g9
g10
(lp1183
F0.022222222222222227
aF0.022222222222222199
aF0
atRp1184
ag1
(g9
g10
(lp1185
F0.011111111111111113
aF0.044444444444444425
aF0
atRp1186
ag1
(g9
g10
(lp1187
F0.0055555555555555566
aF0.022222222222222199
aF0
atRp1188
aa(lp1189
g1
(g9
g10
(lp1190
F0.0055555555555555566
aF-0.044444444444444509
aF0
atRp1191
ag1
(g9
g10
(lp1192
F0.0055555555555555566
aF-0.11111111111111116
aF0
atRp1193
ag1
(g9
g10
(lp1194
F0.0055555555555555566
aF-0.17777777777777781
aF0
atRp1195
ag1
(g9
g10
(lp1196
F0.011111111111111112
aF-0.15555555555555556
aF0
atRp1197
ag1
(g9
g10
(lp1198
F0.022222222222222223
aF-0.17777777777777781
aF0
atRp1199
ag1
(g9
g10
(lp1200
F0.011111111111111112
aF-0.088888888888888906
aF0
atRp1201
ag1
(g9
g10
(lp1202
F0.022222222222222223
aF-0.11111111111111116
aF0
atRp1203
ag1
(g9
g10
(lp1204
F0.027777777777777776
aF-0.15555555555555556
aF0
atRp1205
ag1
(g9
g10
(lp1206
F0.03888888888888889
aF-0.17777777777777781
aF0
atRp1207
aa(lp1208
g1
(g9
g10
(lp1209
F0.0055555555555555566
aF0.044444444444444432
aF0
atRp1210
ag1
(g9
g10
(lp1211
F0.022222222222222223
aF0.11111111111111108
aF0
atRp1212
ag1
(g9
g10
(lp1213
F0.03888888888888889
aF0.17777777777777773
aF0
atRp1214
ag1
(g9
g10
(lp1215
F0.02777777777777778
aF0.1555555555555555
aF0
atRp1216
ag1
(g9
g10
(lp1217
F0.022222222222222227
aF0.17777777777777773
aF0
atRp1218
ag1
(g9
g10
(lp1219
F0.011111111111111112
aF0.088888888888888865
aF0
atRp1220
ag1
(g9
g10
(lp1221
F0.0055555555555555566
aF0.11111111111111108
aF0
atRp1222
ag1
(g9
g10
(lp1223
F0.011111111111111113
aF0.1555555555555555
aF0
atRp1224
ag1
(g9
g10
(lp1225
F0.0055555555555555566
aF0.17777777777777773
aF0
atRp1226
aa(lp1227
g1
(g9
g10
(lp1228
F0.03888888888888889
aF0.022222222222222254
aF0
atRp1229
ag1
(g9
g10
(lp1230
F0.022222222222222227
aF0.088888888888888906
aF0
atRp1231
ag1
(g9
g10
(lp1232
F0.0055555555555555566
aF0.15555555555555553
aF0
atRp1233
ag1
(g9
g10
(lp1234
F0.011111111111111113
aF0.1111111111111111
aF0
atRp1235
ag1
(g9
g10
(lp1236
F0.0055555555555555566
aF0.088888888888888906
aF0
atRp1237
ag1
(g9
g10
(lp1238
F0.02777777777777778
aF0.044444444444444453
aF0
atRp1239
ag1
(g9
g10
(lp1240
F0.022222222222222227
aF0.022222222222222254
aF0
atRp1241
ag1
(g9
g10
(lp1242
F0.011111111111111113
aF0.044444444444444453
aF0
atRp1243
ag1
(g9
g10
(lp1244
F0.0055555555555555566
aF0.022222222222222254
aF0
atRp1245
aa(lp1246
g1
(g9
g10
(lp1247
F0.0055555555555555566
aF-0.044444444444444432
aF0
atRp1248
ag1
(g9
g10
(lp1249
F0.0055555555555555566
aF-0.11111111111111108
aF0
atRp1250
ag1
(g9
g10
(lp1251
F0.0055555555555555566
aF-0.17777777777777773
aF0
atRp1252
ag1
(g9
g10
(lp1253
F0.011111111111111112
aF-0.1555555555555555
aF0
atRp1254
ag1
(g9
g10
(lp1255
F0.022222222222222223
aF-0.17777777777777773
aF0
atRp1256
ag1
(g9
g10
(lp1257
F0.011111111111111112
aF-0.088888888888888865
aF0
atRp1258
ag1
(g9
g10
(lp1259
F0.022222222222222223
aF-0.11111111111111108
aF0
atRp1260
ag1
(g9
g10
(lp1261
F0.027777777777777776
aF-0.1555555555555555
aF0
atRp1262
ag1
(g9
g10
(lp1263
F0.03888888888888889
aF-0.17777777777777773
aF0
atRp1264
aa(lp1265
g1
(g9
g10
(lp1266
F0.0055555555555555566
aF0.044444444444444509
aF0
atRp1267
ag1
(g9
g10
(lp1268
F0.022222222222222223
aF0.11111111111111127
aF0
atRp1269
ag1
(g9
g10
(lp1270
F0.03888888888888889
aF0.17777777777777792
aF0
atRp1271
ag1
(g9
g10
(lp1272
F0.02777777777777778
aF0.15555555555555567
aF0
atRp1273
ag1
(g9
g10
(lp1274
F0.022222222222222227
aF0.17777777777777798
aF0
atRp1275
ag1
(g9
g10
(lp1276
F0.011111111111111112
aF0.088888888888889017
aF0
atRp1277
ag1
(g9
g10
(lp1278
F0.0055555555555555566
aF0.11111111111111127
aF0
atRp1279
ag1
(g9
g10
(lp1280
F0.011111111111111113
aF0.15555555555555567
aF0
atRp1281
ag1
(g9
g10
(lp1282
F0.0055555555555555566
aF0.17777777777777792
aF0
atRp1283
aa(lp1284
g1
(g9
g10
(lp1285
F-0.03888888888888889
aF0.022222222222222143
aF0
atRp1286
ag1
(g9
g10
(lp1287
F-0.022222222222222227
aF0.022222222222222143
aF0
atRp1288
ag1
(g9
g10
(lp1289
F-0.0055555555555555566
aF0.022222222222222143
aF0
atRp1290
ag1
(g9
g10
(lp1291
F-0.011111111111111113
aF0.044444444444444287
aF0
atRp1292
ag1
(g9
g10
(lp1293
F-0.0055555555555555566
aF0.088888888888888906
aF0
atRp1294
ag1
(g9
g10
(lp1295
F-0.02777777777777778
aF0.044444444444444287
aF0
atRp1296
ag1
(g9
g10
(lp1297
F-0.022222222222222227
aF0.088888888888888906
aF0
atRp1298
ag1
(g9
g10
(lp1299
F-0.011111111111111113
aF0.11111111111111105
aF0
atRp1300
ag1
(g9
g10
(lp1301
F-0.0055555555555555566
aF0.15555555555555545
aF0
atRp1302
aa(lp1303
g1
(g9
g10
(lp1304
F0.0055555555555555566
aF0.17777777777777781
aF0
atRp1305
ag1
(g9
g10
(lp1306
F0.0055555555555555566
aF0.11111111111111127
aF0
atRp1307
ag1
(g9
g10
(lp1308
F0.0055555555555555566
aF0.044444444444444509
aF0
atRp1309
ag1
(g9
g10
(lp1310
F0.011111111111111112
aF0.088888888888888906
aF0
atRp1311
ag1
(g9
g10
(lp1312
F0.022222222222222223
aF0.11111111111111105
aF0
atRp1313
ag1
(g9
g10
(lp1314
F0.011111111111111112
aF0.15555555555555556
aF0
atRp1315
ag1
(g9
g10
(lp1316
F0.022222222222222223
aF0.17777777777777781
aF0
atRp1317
ag1
(g9
g10
(lp1318
F0.027777777777777776
aF0.15555555555555556
aF0
atRp1319
ag1
(g9
g10
(lp1320
F0.03888888888888889
aF0.17777777777777781
aF0
atRp1321
aa(lp1322
g1
(g9
g10
(lp1323
F-0.0055555555555555566
aF0.1555555555555555
aF0
atRp1324
ag1
(g9
g10
(lp1325
F-0.022222222222222223
aF0.088888888888888865
aF0
atRp1326
ag1
(g9
g10
(lp1327
F-0.03888888888888889
aF0.022222222222222216
aF0
atRp1328
ag1
(g9
g10
(lp1329
F-0.02777777777777778
aF0.044444444444444432
aF0
atRp1330
ag1
(g9
g10
(lp1331
F-0.022222222222222227
aF0.022222222222222216
aF0
atRp1332
ag1
(g9
g10
(lp1333
F-0.011111111111111112
aF0.11111111111111108
aF0
atRp1334
ag1
(g9
g10
(lp1335
F-0.0055555555555555566
aF0.088888888888888865
aF0
atRp1336
ag1
(g9
g10
(lp1337
F-0.011111111111111113
aF0.044444444444444432
aF0
atRp1338
ag1
(g9
g10
(lp1339
F-0.0055555555555555566
aF0.022222222222222216
aF0
atRp1340
aa(lp1341
g1
(g9
g10
(lp1342
F-0.03888888888888889
aF0.17777777777777773
aF0
atRp1343
ag1
(g9
g10
(lp1344
F-0.022222222222222227
aF0.11111111111111109
aF0
atRp1345
ag1
(g9
g10
(lp1346
F-0.0055555555555555566
aF0.044444444444444453
aF0
atRp1347
ag1
(g9
g10
(lp1348
F-0.011111111111111113
aF0.088888888888888878
aF0
atRp1349
ag1
(g9
g10
(lp1350
F-0.0055555555555555566
aF0.11111111111111109
aF0
atRp1351
ag1
(g9
g10
(lp1352
F-0.02777777777777778
aF0.15555555555555553
aF0
atRp1353
ag1
(g9
g10
(lp1354
F-0.022222222222222227
aF0.17777777777777773
aF0
atRp1355
ag1
(g9
g10
(lp1356
F-0.011111111111111113
aF0.15555555555555553
aF0
atRp1357
ag1
(g9
g10
(lp1358
F-0.0055555555555555566
aF0.17777777777777773
aF0
atRp1359
aa(lp1360
g1
(g9
g10
(lp1361
F0.0055555555555555566
aF0.15555555555555553
aF0
atRp1362
ag1
(g9
g10
(lp1363
F0.0055555555555555566
aF0.088888888888888878
aF0
atRp1364
ag1
(g9
g10
(lp1365
F0.0055555555555555566
aF0.022222222222222227
aF0
atRp1366
ag1
(g9
g10
(lp1367
F0.011111111111111112
aF0.044444444444444453
aF0
atRp1368
ag1
(g9
g10
(lp1369
F0.022222222222222223
aF0.022222222222222227
aF0
atRp1370
ag1
(g9
g10
(lp1371
F0.011111111111111112
aF0.11111111111111109
aF0
atRp1372
ag1
(g9
g10
(lp1373
F0.022222222222222223
aF0.088888888888888878
aF0
atRp1374
ag1
(g9
g10
(lp1375
F0.027777777777777776
aF0.044444444444444453
aF0
atRp1376
ag1
(g9
g10
(lp1377
F0.03888888888888889
aF0.022222222222222227
aF0
atRp1378
aa(lp1379
g1
(g9
g10
(lp1380
F0.0055555555555555566
aF-0.15555555555555567
aF0
atRp1381
ag1
(g9
g10
(lp1382
F0.022222222222222223
aF-0.088888888888888906
aF0
atRp1383
ag1
(g9
g10
(lp1384
F0.03888888888888889
aF-0.022222222222222254
aF0
atRp1385
ag1
(g9
g10
(lp1386
F0.02777777777777778
aF-0.044444444444444509
aF0
atRp1387
ag1
(g9
g10
(lp1388
F0.022222222222222227
aF-0.022222222222222199
aF0
atRp1389
ag1
(g9
g10
(lp1390
F0.011111111111111112
aF-0.11111111111111116
aF0
atRp1391
ag1
(g9
g10
(lp1392
F0.0055555555555555566
aF-0.088888888888888906
aF0
atRp1393
ag1
(g9
g10
(lp1394
F0.011111111111111113
aF-0.044444444444444509
aF0
atRp1395
ag1
(g9
g10
(lp1396
F0.0055555555555555566
aF-0.022222222222222254
aF0
atRp1397
aa(lp1398
g1
(g9
g10
(lp1399
F0.0055555555555555566
aF0.17777777777777781
aF0
atRp1400
ag1
(g9
g10
(lp1401
F0.0055555555555555566
aF0.11111111111111116
aF0
atRp1402
ag1
(g9
g10
(lp1403
F0.0055555555555555566
aF0.044444444444444509
aF0
atRp1404
ag1
(g9
g10
(lp1405
F0.011111111111111112
aF0.088888888888889017
aF0
atRp1406
ag1
(g9
g10
(lp1407
F0.022222222222222223
aF0.11111111111111116
aF0
atRp1408
ag1
(g9
g10
(lp1409
F0.011111111111111112
aF0.15555555555555556
aF0
atRp1410
ag1
(g9
g10
(lp1411
F0.022222222222222223
aF0.17777777777777781
aF0
atRp1412
ag1
(g9
g10
(lp1413
F0.027777777777777776
aF0.15555555555555556
aF0
atRp1414
ag1
(g9
g10
(lp1415
F0.03888888888888889
aF0.17777777777777781
aF0
atRp1416
aa(lp1417
g1
(g9
g10
(lp1418
F0.0055555555555555566
aF0.15555555555555545
aF0
atRp1419
ag1
(g9
g10
(lp1420
F0.0055555555555555566
aF0.088888888888888795
aF0
atRp1421
ag1
(g9
g10
(lp1422
F0.0055555555555555566
aF0.022222222222222143
aF0
atRp1423
ag1
(g9
g10
(lp1424
F0.011111111111111112
aF0.044444444444444398
aF0
atRp1425
ag1
(g9
g10
(lp1426
F0.022222222222222223
aF0.022222222222222143
aF0
atRp1427
ag1
(g9
g10
(lp1428
F0.011111111111111112
aF0.11111111111111105
aF0
atRp1429
ag1
(g9
g10
(lp1430
F0.022222222222222223
aF0.088888888888888795
aF0
atRp1431
ag1
(g9
g10
(lp1432
F0.027777777777777776
aF0.044444444444444398
aF0
atRp1433
ag1
(g9
g10
(lp1434
F0.03888888888888889
aF0.022222222222222143
aF0
atRp1435
aa(lp1436
g1
(g9
g10
(lp1437
F-0.0055555555555555566
aF-0.044444444444444509
aF0
atRp1438
ag1
(g9
g10
(lp1439
F-0.022222222222222223
aF-0.11111111111111116
aF0
atRp1440
ag1
(g9
g10
(lp1441
F-0.03888888888888889
aF-0.17777777777777781
aF0
atRp1442
ag1
(g9
g10
(lp1443
F-0.02777777777777778
aF-0.15555555555555567
aF0
atRp1444
ag1
(g9
g10
(lp1445
F-0.022222222222222227
aF-0.17777777777777781
aF0
atRp1446
ag1
(g9
g10
(lp1447
F-0.011111111111111112
aF-0.088888888888889017
aF0
atRp1448
ag1
(g9
g10
(lp1449
F-0.0055555555555555566
aF-0.11111111111111116
aF0
atRp1450
ag1
(g9
g10
(lp1451
F-0.011111111111111113
aF-0.15555555555555567
aF0
atRp1452
ag1
(g9
g10
(lp1453
F-0.0055555555555555566
aF-0.17777777777777781
aF0
atRp1454
aa(lp1455
g1
(g9
g10
(lp1456
F0.0055555555555555566
aF-0.022222222222222254
aF0
atRp1457
ag1
(g9
g10
(lp1458
F0.0055555555555555566
aF-0.088888888888888795
aF0
atRp1459
ag1
(g9
g10
(lp1460
F0.0055555555555555566
aF-0.15555555555555556
aF0
atRp1461
ag1
(g9
g10
(lp1462
F0.011111111111111112
aF-0.11111111111111116
aF0
atRp1463
ag1
(g9
g10
(lp1464
F0.022222222222222223
aF-0.088888888888889017
aF0
atRp1465
ag1
(g9
g10
(lp1466
F0.011111111111111112
aF-0.044444444444444509
aF0
atRp1467
ag1
(g9
g10
(lp1468
F0.022222222222222223
aF-0.022222222222222254
aF0
atRp1469
ag1
(g9
g10
(lp1470
F0.027777777777777776
aF-0.044444444444444509
aF0
atRp1471
ag1
(g9
g10
(lp1472
F0.03888888888888889
aF-0.022222222222222254
aF0
atRp1473
aa(lp1474
g1
(g9
g10
(lp1475
F-0.0055555555555555566
aF-0.022222222222222143
aF0
atRp1476
ag1
(g9
g10
(lp1477
F-0.022222222222222223
aF-0.022222222222222143
aF0
atRp1478
ag1
(g9
g10
(lp1479
F-0.03888888888888889
aF-0.022222222222222143
aF0
atRp1480
ag1
(g9
g10
(lp1481
F-0.02777777777777778
aF-0.044444444444444287
aF0
atRp1482
ag1
(g9
g10
(lp1483
F-0.022222222222222227
aF-0.088888888888888906
aF0
atRp1484
ag1
(g9
g10
(lp1485
F-0.011111111111111112
aF-0.044444444444444287
aF0
atRp1486
ag1
(g9
g10
(lp1487
F-0.0055555555555555566
aF-0.088888888888888906
aF0
atRp1488
ag1
(g9
g10
(lp1489
F-0.011111111111111113
aF-0.11111111111111105
aF0
atRp1490
ag1
(g9
g10
(lp1491
F-0.0055555555555555566
aF-0.15555555555555545
aF0
atRp1492
aa(lp1493
g1
(g9
g10
(lp1494
F-0.03888888888888889
aF-0.1777777777777777
aF0
atRp1495
ag1
(g9
g10
(lp1496
F-0.022222222222222227
aF-0.1777777777777777
aF0
atRp1497
ag1
(g9
g10
(lp1498
F-0.0055555555555555566
aF-0.1777777777777777
aF0
atRp1499
ag1
(g9
g10
(lp1500
F-0.011111111111111113
aF-0.15555555555555545
aF0
atRp1501
ag1
(g9
g10
(lp1502
F-0.0055555555555555566
aF-0.11111111111111116
aF0
atRp1503
ag1
(g9
g10
(lp1504
F-0.02777777777777778
aF-0.15555555555555545
aF0
atRp1505
ag1
(g9
g10
(lp1506
F-0.022222222222222227
aF-0.11111111111111116
aF0
atRp1507
ag1
(g9
g10
(lp1508
F-0.011111111111111113
aF-0.088888888888888795
aF0
atRp1509
ag1
(g9
g10
(lp1510
F-0.0055555555555555566
aF-0.044444444444444398
aF0
atRp1511
aa(lp1512
g1
(g9
g10
(lp1513
F0.0055555555555555566
aF-0.022222222222222143
aF0
atRp1514
ag1
(g9
g10
(lp1515
F0.0055555555555555566
aF-0.088888888888888795
aF0
atRp1516
ag1
(g9
g10
(lp1517
F0.0055555555555555566
aF-0.15555555555555545
aF0
atRp1518
ag1
(g9
g10
(lp1519
F0.011111111111111112
aF-0.11111111111111094
aF0
atRp1520
ag1
(g9
g10
(lp1521
F0.022222222222222223
aF-0.088888888888888795
aF0
atRp1522
ag1
(g9
g10
(lp1523
F0.011111111111111112
aF-0.044444444444444398
aF0
atRp1524
ag1
(g9
g10
(lp1525
F0.022222222222222223
aF-0.022222222222222143
aF0
atRp1526
ag1
(g9
g10
(lp1527
F0.027777777777777776
aF-0.044444444444444398
aF0
atRp1528
ag1
(g9
g10
(lp1529
F0.03888888888888889
aF-0.022222222222222143
aF0
atRp1530
aasS'FactorFi'
p1531
(lp1532
g1148
(F0
F-294.88725481938093
tRp1533
ag1148
(F0
F-71.52066466286692
tRp1534
ag1148
(F0
F-71.52066466286692
tRp1535
ag1148
(F0
F-294.88725481938076
tRp1536
ag1148
(F0
F-71.52066466286692
tRp1537
ag1148
(F0
F-71.52066466286692
tRp1538
ag1148
(F0
F-294.88725481938076
tRp1539
ag1148
(F0
F-71.52066466286692
tRp1540
ag1148
(F0
F-294.88725481938076
tRp1541
ag1148
(F0
F-71.52066466286692
tRp1542
ag1148
(F0
F-294.88725481938076
tRp1543
ag1148
(F0
F-294.8872548193811
tRp1544
ag1148
(F0
F-71.52066466286692
tRp1545
ag1148
(F0
F-294.88725481938076
tRp1546
ag1148
(F0
F-71.52066466286692
tRp1547
ag1148
(F0
F-294.88725481938093
tRp1548
ag1148
(F0
F-294.88725481938076
tRp1549
ag1148
(F0
F-71.52066466286692
tRp1550
ag1148
(F0
F-294.88725481938076
tRp1551
asS'densities'
p1552
(lp1553
F0.25402974720596211
aF0.27922574269260447
aF0.27919185279551523
aF0.25403970069115084
aF0.022059537405807579
aF0.093221271836517974
aF0.28776603664478567
aF0.29636742978411085
aF0.29637210606837106
aF0.28776077172740977
aF0.19770168295101848
aF0.23761924606053819
aF0.1976305944759266
aF0.23752659964152717
aF0.17443550553237441
aF0.12188333950189716
aF0.022097299656882622
aF0.093287463413188873
aF0.12187334318944179
aF0.17440843866175276
asS'y_extent'
p1554
(lp1555
F-1
aF1
asS'edge_length'
p1556
(lp1557
F0.20615528128088309
aF0.050000000000000003
aF0.050000000000000003
aF0.20615528128088298
aF0.050000000000000003
aF0.050000000000000003
aF0.20615528128088298
aF0.050000000000000003
aF0.20615528128088298
aF0.050000000000000003
aF0.20615528128088298
aF0.2061552812808832
aF0.050000000000000003
aF0.20615528128088298
aF0.050000000000000003
aF0.20615528128088309
aF0.20615528128088298
aF0.050000000000000003
aF0.20615528128088298
asS'triangles'
p1558
(lp1559
(I14
I4
I3
tp1560
a(I4
I14
I15
tp1561
a(I6
I17
I7
tp1562
a(I7
I17
I18
tp1563
a(I11
I12
I0
tp1564
a(I12
I1
I0
tp1565
a(I16
I4
I15
tp1566
a(I4
I16
I5
tp1567
a(I16
I6
I5
tp1568
a(I16
I17
I6
tp1569
a(I19
I8
I7
tp1570
a(I19
I7
I18
tp1571
a(I2
I13
I3
tp1572
a(I13
I14
I3
tp1573
a(I1
I13
I2
tp1574
a(I12
I13
I1
tp1575
a(I20
I21
I10
tp1576
a(I9
I20
I10
tp1577
a(I20
I9
I8
tp1578
a(I19
I20
I8
tp1579
asS'center_g'
p1580
(lp1581
sS'rho_minus'
p1582
(lp1583
g1
(g9
g10
(lp1584
F0.01666666666666667
aF0.066666666666666652
aF0
atRp1585
ag1
(g9
g10
(lp1586
F0.01666666666666667
aF-0.13333333333333336
aF0
atRp1587
ag1
(g9
g10
(lp1588
F0.01666666666666667
aF0.1333333333333333
aF0
atRp1589
ag1
(g9
g10
(lp1590
F0.01666666666666667
aF0.066666666666666652
aF0
atRp1591
ag1
(g9
g10
(lp1592
F0.01666666666666667
aF-0.1333333333333333
aF0
atRp1593
ag1
(g9
g10
(lp1594
F0.01666666666666667
aF0.13333333333333347
aF0
atRp1595
ag1
(g9
g10
(lp1596
F-0.01666666666666667
aF0.066666666666666652
aF0
atRp1597
ag1
(g9
g10
(lp1598
F0.01666666666666667
aF0.13333333333333341
aF0
atRp1599
ag1
(g9
g10
(lp1600
F-0.01666666666666667
aF0.066666666666666652
aF0
atRp1601
ag1
(g9
g10
(lp1602
F-0.01666666666666667
aF0.1333333333333333
aF0
atRp1603
ag1
(g9
g10
(lp1604
F0.01666666666666667
aF0.066666666666666652
aF0
atRp1605
ag1
(g9
g10
(lp1606
F0.01666666666666667
aF-0.066666666666666707
aF0
atRp1607
ag1
(g9
g10
(lp1608
F0.01666666666666667
aF0.13333333333333341
aF0
atRp1609
ag1
(g9
g10
(lp1610
F0.01666666666666667
aF0.066666666666666596
aF0
atRp1611
ag1
(g9
g10
(lp1612
F-0.01666666666666667
aF-0.13333333333333341
aF0
atRp1613
ag1
(g9
g10
(lp1614
F0.01666666666666667
aF-0.066666666666666652
aF0
atRp1615
ag1
(g9
g10
(lp1616
F-0.01666666666666667
aF-0.066666666666666652
aF0
atRp1617
ag1
(g9
g10
(lp1618
F-0.01666666666666667
aF-0.1333333333333333
aF0
atRp1619
ag1
(g9
g10
(lp1620
F0.01666666666666667
aF-0.066666666666666541
aF0
atRp1621
asS'triangle_plus'
p1622
(lp1623
I0
aI0
aI1
aI2
aI2
aI3
aI4
aI5
aI6
aI7
aI8
aI10
aI10
aI12
aI12
aI14
aI16
aI17
aI18
asS'edge_indicator'
p1624
(lp1625
sS'rho_plus'
p1626
(lp1627
g1
(g9
g10
(lp1628
F0.01666666666666667
aF0.066666666666666707
aF0
atRp1629
ag1
(g9
g10
(lp1630
F0.01666666666666667
aF-0.13333333333333336
aF0
atRp1631
ag1
(g9
g10
(lp1632
F-0.01666666666666667
aF0.13333333333333341
aF0
atRp1633
ag1
(g9
g10
(lp1634
F0.01666666666666667
aF0.066666666666666652
aF0
atRp1635
ag1
(g9
g10
(lp1636
F0.01666666666666667
aF-0.1333333333333333
aF0
atRp1637
ag1
(g9
g10
(lp1638
F-0.01666666666666667
aF0.1333333333333333
aF0
atRp1639
ag1
(g9
g10
(lp1640
F-0.01666666666666667
aF0.066666666666666763
aF0
atRp1641
ag1
(g9
g10
(lp1642
F0.01666666666666667
aF0.1333333333333333
aF0
atRp1643
ag1
(g9
g10
(lp1644
F-0.01666666666666667
aF0.066666666666666652
aF0
atRp1645
ag1
(g9
g10
(lp1646
F0.01666666666666667
aF0.1333333333333333
aF0
atRp1647
ag1
(g9
g10
(lp1648
F0.01666666666666667
aF0.066666666666666652
aF0
atRp1649
ag1
(g9
g10
(lp1650
F0.01666666666666667
aF-0.066666666666666763
aF0
atRp1651
ag1
(g9
g10
(lp1652
F0.01666666666666667
aF0.13333333333333341
aF0
atRp1653
ag1
(g9
g10
(lp1654
F0.01666666666666667
aF0.066666666666666652
aF0
atRp1655
ag1
(g9
g10
(lp1656
F0.01666666666666667
aF-0.1333333333333333
aF0
atRp1657
ag1
(g9
g10
(lp1658
F0.01666666666666667
aF-0.066666666666666652
aF0
atRp1659
ag1
(g9
g10
(lp1660
F-0.01666666666666667
aF-0.066666666666666763
aF0
atRp1661
ag1
(g9
g10
(lp1662
F0.01666666666666667
aF-0.1333333333333333
aF0
atRp1663
ag1
(g9
g10
(lp1664
F0.01666666666666667
aF-0.066666666666666652
aF0
atRp1665
asS'center'
p1666
(lp1667
g1
(g9
g10
(lp1668
F-0.0083333333333333332
aF-0.33333333333333331
aF0
atRp1669
ag1
(g9
g10
(lp1670
F0.0083333333333333332
aF-0.26666666666666661
aF0
atRp1671
ag1
(g9
g10
(lp1672
F-0.0083333333333333332
aF0.26666666666666661
aF0
atRp1673
ag1
(g9
g10
(lp1674
F0.0083333333333333332
aF0.33333333333333326
aF0
atRp1675
ag1
(g9
g10
(lp1676
F0.0083333333333333332
aF-0.93333333333333324
aF0
atRp1677
ag1
(g9
g10
(lp1678
F-0.0083333333333333332
aF-0.8666666666666667
aF0
atRp1679
ag1
(g9
g10
(lp1680
F0.0083333333333333332
aF-0.1333333333333333
aF0
atRp1681
ag1
(g9
g10
(lp1682
F-0.0083333333333333332
aF-0.066666666666666652
aF0
atRp1683
ag1
(g9
g10
(lp1684
F-0.0083333333333333332
aF0.066666666666666652
aF0
atRp1685
ag1
(g9
g10
(lp1686
F0.0083333333333333332
aF0.1333333333333333
aF0
atRp1687
ag1
(g9
g10
(lp1688
F-0.0083333333333333332
aF0.53333333333333333
aF0
atRp1689
ag1
(g9
g10
(lp1690
F0.0083333333333333332
aF0.46666666666666662
aF0
atRp1691
ag1
(g9
g10
(lp1692
F-0.0083333333333333332
aF-0.53333333333333333
aF0
atRp1693
ag1
(g9
g10
(lp1694
F0.0083333333333333332
aF-0.46666666666666662
aF0
atRp1695
ag1
(g9
g10
(lp1696
F-0.0083333333333333332
aF-0.66666666666666663
aF0
atRp1697
ag1
(g9
g10
(lp1698
F0.0083333333333333332
aF-0.73333333333333339
aF0
atRp1699
ag1
(g9
g10
(lp1700
F0.0083333333333333332
aF0.93333333333333324
aF0
atRp1701
ag1
(g9
g10
(lp1702
F-0.0083333333333333332
aF0.8666666666666667
aF0
atRp1703
ag1
(g9
g10
(lp1704
F-0.0083333333333333332
aF0.73333333333333339
aF0
atRp1705
ag1
(g9
g10
(lp1706
F0.0083333333333333332
aF0.66666666666666663
aF0
atRp1707
asS'tri'
p1708
(lp1709
sS'name'
p1710
S'dipole'
p1711
sS'geometry'
p1712
S'plate'
p1713
sS'vertices'
p1714
(lp1715
(lp1716
F0.025000000000000001
aF1
aa(lp1717
F0.025000000000000001
aF-1
aa(lp1718
F-0.025000000000000001
aF-1
aa(lp1719
F-0.025000000000000001
aF1
aa(lp1720
F0.025000000000000001
aF1
aasS'triangles_total'
p1721
I20
sS'points'
p1722
(lp1723
g1
(g9
g10
(lp1724
F-0.025000000000000001
aF-1
aF0
atRp1725
ag1
(g9
g10
(lp1726
F-0.025000000000000001
aF-0.80000000000000004
aF0
atRp1727
ag1
(g9
g10
(lp1728
F-0.025000000000000001
aF-0.59999999999999998
aF0
atRp1729
ag1
(g9
g10
(lp1730
F-0.025000000000000001
aF-0.40000000000000002
aF0
atRp1731
ag1
(g9
g10
(lp1732
F-0.025000000000000001
aF-0.19999999999999996
aF0
atRp1733
ag1
(g9
g10
(lp1734
F-0.025000000000000001
aF0
aF0
atRp1735
ag1
(g9
g10
(lp1736
F-0.025000000000000001
aF0.19999999999999996
aF0
atRp1737
ag1
(g9
g10
(lp1738
F-0.025000000000000001
aF0.39999999999999991
aF0
atRp1739
ag1
(g9
g10
(lp1740
F-0.025000000000000001
aF0.60000000000000009
aF0
atRp1741
ag1
(g9
g10
(lp1742
F-0.025000000000000001
aF0.80000000000000004
aF0
atRp1743
ag1
(g9
g10
(lp1744
F-0.025000000000000001
aF1
aF0
atRp1745
ag1
(g9
g10
(lp1746
F0.025000000000000001
aF-1
aF0
atRp1747
ag1
(g9
g10
(lp1748
F0.025000000000000001
aF-0.80000000000000004
aF0
atRp1749
ag1
(g9
g10
(lp1750
F0.025000000000000001
aF-0.59999999999999998
aF0
atRp1751
ag1
(g9
g10
(lp1752
F0.025000000000000001
aF-0.40000000000000002
aF0
atRp1753
ag1
(g9
g10
(lp1754
F0.025000000000000001
aF-0.19999999999999996
aF0
atRp1755
ag1
(g9
g10
(lp1756
F0.025000000000000001
aF0
aF0
atRp1757
ag1
(g9
g10
(lp1758
F0.025000000000000001
aF0.19999999999999996
aF0
atRp1759
ag1
(g9
g10
(lp1760
F0.025000000000000001
aF0.39999999999999991
aF0
atRp1761
ag1
(g9
g10
(lp1762
F0.025000000000000001
aF0.60000000000000009
aF0
atRp1763
ag1
(g9
g10
(lp1764
F0.025000000000000001
aF0.80000000000000004
aF0
atRp1765
ag1
(g9
g10
(lp1766
F0.025000000000000001
aF1
aF0
atRp1767
asS'maxdim'
p1768
F1
sS'edge_'
p1769
(lp1770
(I14
I4
tp1771
a(I14
I3
tp1772
a(I4
I15
tp1773
a(I17
I7
tp1774
a(I6
I17
tp1775
a(I7
I18
tp1776
a(I12
I0
tp1777
a(I12
I1
tp1778
a(I16
I4
tp1779
a(I16
I5
tp1780
a(I16
I6
tp1781
a(I19
I7
tp1782
a(I19
I8
tp1783
a(I13
I3
tp1784
a(I2
I13
tp1785
a(I1
I13
tp1786
a(I20
I10
tp1787
a(I9
I20
tp1788
a(I20
I8
tp1789
asb.