ccopy_reg
_reconstructor
p1
(cpattern._pattern
Pattern
p2
c__builtin__
object
p3
NtRp4
(dp5
S'distance'
p6
I5
sS'zx'
p7
(lp8
F2.0789997481963942
aF2.079073209730026
aF2.0791422363398273
aF2.0792064354094681
aF2.0792655349437181
aF2.0793193790532429
aF2.0793679202084627
aF2.0794112085930005
aF2.0794493789721749
aF2.0794826355639402
aF2.079511235455672
aF2.0795354711495215
aF2.0795556528397863
aF2.079572091027722
aF2.0795850800623046
aF2.079594883160202
aF2.079601719405741
aF2.0796057531637113
aF2.0796070862563711
aF2.0796057531637113
aF2.079601719405741
aF2.0795948831601994
aF2.0795850800623032
aF2.079572091027722
aF2.0795556528397849
aF2.0795354711495202
aF2.079511235455672
aF2.0794826355639402
aF2.0794493789721744
aF2.0794112085929992
aF2.0793679202084627
aF2.0793193790532429
aF2.0792655349437181
aF2.079206435409469
aF2.0791422363398264
aF2.079073209730026
aF2.0789997481963942
aF2.0789223660259055
aF2.0788416966291323
aF2.0787584863740252
aF2.0786735848879512
aF2.0785879320234089
aF2.0785025417857708
aF2.0784184836160531
aF2.0783368615051048
aF2.078258791485295
aF2.078185378099612
aF2.0781176904842082
aF2.078056738718002
aF2.0780034510909813
aF2.0779586529218159
aF2.0779230475154273
aF2.0778971997936666
aF2.0778815230589389
aF2.0778762692635135
aF2.0778815230589389
aF2.0778971997936666
aF2.0779230475154296
aF2.0779586529218173
aF2.0780034510909804
aF2.0780567387180029
aF2.0781176904842105
aF2.078185378099612
aF2.0782587914852941
aF2.0783368615051048
aF2.0784184836160549
aF2.0785025417857708
aF2.0785879320234084
aF2.078673584887949
aF2.0787584863740234
aF2.0788416966291328
aF2.0789223660259055
aF2.0789997481963942
asS'iso_density'
p9
F2.7593421905808072e-05
sS'yz'
p10
(lp11
F2.0789997481963942
aF2.0336116127756125
aF1.8972068652660674
aF1.6691187974574375
aF1.348120269867723
aF0.93223204792279124
aF0.41841524391643925
aF-0.19790237772207039
aF-0.92355163264460294
aF-1.7687472133074071
aF-2.7488829848634748
aF-3.8875181393883067
aF-5.221638058520143
aF-6.8116694941075293
aF-8.7626647295505382
aF-11.27630548497635
aF-14.811435113506377
aF-20.840778091693153
aF-59.809494578822765
aF-20.84077809169316
aF-14.811435113506384
aF-11.276305484976346
aF-8.7626647295505435
aF-6.8116694941075355
aF-5.2216380585201509
aF-3.8875181393883151
aF-2.7488829848634748
aF-1.7687472133074089
aF-0.92355163264460693
aF-0.19790237772206939
aF0.41841524391643925
aF0.93223204792279124
aF1.3481202698677204
aF1.6691187974574395
aF1.8972068652660665
aF2.0336116127756125
aF2.0789997481963942
aF2.0335824628361023
aF1.8971488233642857
aF1.6690323788077155
aF1.3480062455606545
aF0.93209144327377302
aF0.4182493372809149
aF-0.19809205404642441
aF-0.92376328607830183
aF-1.7689787723144612
aF-2.7491320533954102
aF-3.8877818920879137
aF-5.2219129983786914
aF-6.8119508592666467
aF-8.7629448658605984
aF-11.276568426302596
aF-14.811631336145531
aF-20.840585898638849
aF-56.913143290580372
aF-20.840585898638835
aF-14.811631336145528
aF-11.276568426302598
aF-8.7629448658605931
aF-6.8119508592666449
aF-5.2219129983786861
aF-3.8877818920879044
aF-2.7491320533954102
aF-1.7689787723144599
aF-0.92376328607830072
aF-0.19809205404642488
aF0.4182493372809149
aF0.93209144327377302
aF1.3480062455606578
aF1.6690323788077155
aF1.897148823364287
aF2.0335824628361023
aF2.0789997481963942
asS'data_densities'
p12
(dp13
I0
(lp14
F4.4535418343269226e-05
aF4.4535418343269226e-05
aF4.4535418343269226e-05
aF4.4535418343269226e-05
aF4.4535418343269226e-05
aF4.4535418343269226e-05
aF4.4535418343269226e-05
aF4.4535418343269226e-05
aF4.4535418343269226e-05
aF4.4535418343269226e-05
aF4.4535418343269226e-05
aF4.4535418343269226e-05
aF4.4535418343269226e-05
aF4.4535418343269226e-05
aF4.4535418343269226e-05
aF4.4535418343269226e-05
aF4.4535418343269226e-05
aF4.4535418343269226e-05
aF4.4535418343269226e-05
aF4.4535418343269226e-05
aF4.4535418343269226e-05
aF4.4535418343269226e-05
aF4.4535418343269226e-05
aF4.4535418343269226e-05
aF4.4535418343269226e-05
aF4.4535418343269226e-05
aF4.4535418343269226e-05
aF4.4535418343269226e-05
aF4.4535418343269226e-05
aF4.4535418343269226e-05
aF4.4535418343269226e-05
aF4.4535418343269226e-05
aF4.4535418343269226e-05
aF4.4535418343269226e-05
aF4.4535418343269226e-05
aF4.4535418343269226e-05
aF4.4535418343269226e-05
aF4.4535418343269226e-05
aF4.4535418343269226e-05
aF4.4535418343269226e-05
aF4.4535418343269226e-05
aF4.4535418343269226e-05
aF4.4535418343269226e-05
aF4.4535418343269226e-05
aF4.4535418343269226e-05
aF4.4535418343269226e-05
aF4.4535418343269226e-05
aF4.4535418343269226e-05
aF4.4535418343269226e-05
aF4.4535418343269226e-05
aF4.4535418343269226e-05
aF4.4535418343269226e-05
aF4.4535418343269226e-05
aF4.4535418343269226e-05
aF4.4535418343269226e-05
aF4.4535418343269226e-05
aF4.4535418343269226e-05
aF4.4535418343269226e-05
aF4.4535418343269226e-05
aF4.4535418343269226e-05
aF4.4535418343269226e-05
aF4.4535418343269226e-05
aF4.4535418343269226e-05
aF4.4535418343269226e-05
aF4.4535418343269226e-05
aF4.4535418343269226e-05
aF4.4535418343269226e-05
aF4.4535418343269226e-05
aF4.4535418343269226e-05
aF4.4535418343269226e-05
aF4.4535418343269226e-05
aF4.4535418343269226e-05
asI130
(lp15
F4.4540663779598497e-05
aF4.4265907057807625e-05
aF4.3459475737042945e-05
aF4.2158309192674812e-05
aF4.042081128971997e-05
aF3.8322576082787061e-05
aF3.5951119480504187e-05
aF3.3400195665960104e-05
aF3.076427819123931e-05
aF2.8133708708545798e-05
aF2.5590880590802016e-05
aF2.320765715886827e-05
aF2.1044053337844562e-05
aF1.914805982316888e-05
aF1.7556377057711821e-05
aF1.6295760174000586e-05
aF1.5384654842431189e-05
aF1.4834820967078468e-05
aF1.4652686672115144e-05
aF1.4840239132894578e-05
aF1.539533339450023e-05
aF1.6311379746341327e-05
aF1.7576450898664274e-05
aF1.9171929339765564e-05
aF2.1070889274337192e-05
aF2.3236470859758772e-05
aF2.5620549024380865e-05
aF2.8163015216072476e-05
aF3.0791968455984607e-05
aF3.342504553395726e-05
aF3.5972008537769626e-05
aF3.833855889805537e-05
aF4.0431177499916586e-05
aF4.2162624462884777e-05
aF4.3457598063268547e-05
aF4.4257976524018915e-05
aF4.4527068038526225e-05
aF4.4252379896027948e-05
aF4.3446578266578587e-05
aF4.214652297979347e-05
aF4.0410493038535211e-05
aF3.8313931425559718e-05
aF3.5944198515717814e-05
aF3.3394908968017187e-05
aF3.0760428641368748e-05
aF2.8131032305887859e-05
aF2.5589088716410688e-05
aF2.3206473546793576e-05
aF2.1043240918598234e-05
aF1.9147435127511366e-05
aF1.7555812446389133e-05
aF1.629517631920972e-05
aF1.5384007315898518e-05
aF1.4834085354763883e-05
aF1.4651846362449228e-05
aF1.4839278953412938e-05
aF1.5394240806147922e-05
aF1.6310153581481349e-05
aF1.7575115894859055e-05
aF1.9170553225907347e-05
aF2.1069598151229507e-05
aF2.323545829950715e-05
aF2.5620074843929538e-05
aF2.816339129867671e-05
aF3.0793531178092025e-05
aF3.3428116995935271e-05
aF3.5976851420678205e-05
aF3.834533180841647e-05
aF4.0439898583829866e-05
aF4.2173150508793841e-05
aF4.3469624208526623e-05
aF4.4271058335260257e-05
asI5
(lp16
F4.4536171672620396e-05
aF4.4532620642942015e-05
aF4.4522119925328753e-05
aF4.4504990784419961e-05
aF4.4481756877956322e-05
aF4.4453127956389932e-05
aF4.4419977820803612e-05
aF4.4383317266509239e-05
aF4.4344262895687073e-05
aF4.4304002804173839e-05
aF4.4263760231778604e-05
aF4.4224756311052016e-05
aF4.4188173056858263e-05
aF4.4155117710588747e-05
aF4.4126589491835707e-05
aF4.4103449721044951e-05
aF4.4086396163734045e-05
aF4.4075942314969219e-05
aF4.4072402196365108e-05
aF4.407588108089741e-05
aF4.4086272396797275e-05
aF4.4103260893775829e-05
aF4.4126331985548282e-05
aF4.4154787014719058e-05
aF4.4187764022287563e-05
aF4.4224263447380104e-05
aF4.4263178036791242e-05
aF4.4303326112504601e-05
aF4.4343487232958439e-05
aF4.4382439195081978e-05
aF4.4418995263665475e-05
aF4.4452040486653249e-05
aF4.4480565962855724e-05
aF4.4503699974532977e-05
aF4.4520734981889844e-05
aF4.453114959847497e-05
aF4.4534624822564643e-05
aF4.4531053984664691e-05
aF4.4520546078389607e-05
aF4.4503422362920907e-05
aF4.448020635087103e-05
aF4.4451607516256816e-05
aF4.4418499264288129e-05
aF4.4381891889545759e-05
aF4.4342901404975595e-05
aF4.430271524580066e-05
aF4.4262555936726034e-05
aF4.4223643856429889e-05
aF4.4187160240890248e-05
aF4.4154211538768149e-05
aF4.4125796171261293e-05
aF4.4102774659776083e-05
aF4.4085843972067514e-05
aF4.4075516805823987e-05
aF4.4072106382441567e-05
aF4.4075717166918578e-05
aF4.4086241765896309e-05
aF4.4103364087919543e-05
aF4.4126568680725778e-05
aF4.4155155992426841e-05
aF4.4188263139553297e-05
aF4.4224889608139292e-05
aF4.4263927167822477e-05
aF4.4304193147305436e-05
aF4.4344466106886534e-05
aF4.438352285478626e-05
aF4.4420175693300239e-05
aF4.4453308752631368e-05
aF4.4481912277997573e-05
aF4.4505113781463772e-05
aF4.4522205054496174e-05
aF4.4532664159227635e-05
asI135
(lp17
F4.4540370463882909e-05
aF4.4306232580868057e-05
aF4.3618456991245452e-05
aF4.2506979581740481e-05
aF4.1019304742781989e-05
aF3.9217266894984169e-05
aF3.7173008251591228e-05
aF3.4964590919004374e-05
aF3.267166796211326e-05
aF3.0371589474220404e-05
aF2.8136228185451528e-05
aF2.6029692423544169e-05
aF2.41069716575907e-05
aF2.2413448770580793e-05
aF2.0985126359244448e-05
aF1.9849358641211129e-05
aF1.9025857190742163e-05
aF1.8527744554294677e-05
aF1.8362459040775631e-05
aF1.8532360036598603e-05
aF1.903493994874861e-05
aF1.9862611319266537e-05
aF2.1002101782079862e-05
aF2.2433551753740265e-05
aF2.4129466084480285e-05
aF2.6053716379968204e-05
aF2.8160819298204561e-05
aF3.0395721332227777e-05
aF3.2694296756386841e-05
aF3.4984709493666647e-05
aF3.7189702976111579e-05
aF3.9229771538981304e-05
aF4.1027045191675582e-05
aF4.2509603957560506e-05
aF4.3615847505305377e-05
aF4.429849797520796e-05
aF4.4527820732973041e-05
aF4.4293712701381816e-05
aF4.3606424310099984e-05
aF4.2495832900877857e-05
aF4.1009349843928268e-05
aF3.9208695440573545e-05
aF3.7165892111821889e-05
aF3.4958891321575554e-05
aF3.2667256522866253e-05
aF3.0368276575403233e-05
aF2.8133793558514402e-05
aF2.6027913172319886e-05
aF2.4105644131992279e-05
aF2.2412402346621479e-05
aF2.0984228931504851e-05
aF1.9848515159622091e-05
aF1.9025003638203923e-05
aF1.8526840244716665e-05
aF1.8361480009356416e-05
aF1.8531295675060522e-05
aF1.9033794047565366e-05
aF1.9861407491244681e-05
aF2.100089204738331e-05
aF2.2432426057641443e-05
aF2.4128559875115992e-05
aF2.6053213241184201e-05
aF2.8160946100309303e-05
aF3.0396734430379893e-05
aF3.2696459318424156e-05
aF3.4988261842647971e-05
aF3.7194829556039418e-05
aF3.9236569380314939e-05
aF4.1035499229435531e-05
aF4.2519574029723593e-05
aF4.3627070323867925e-05
aF4.431060503885894e-05
asI10
(lp18
F4.4536879534567256e-05
aF4.4522763395917117e-05
aF4.448108012866554e-05
aF4.4413129578583238e-05
aF4.4321027081601249e-05
aF4.4207633047782406e-05
aF4.4076458526828387e-05
aF4.3931550539343555e-05
aF4.3777361626729543e-05
aF4.3618608487534978e-05
aF4.3460124725560325e-05
aF4.3306712652428215e-05
aF4.3162998799756618e-05
aF4.3033297350992569e-05
aF4.2921485153977997e-05
aF4.283089137568978e-05
aF4.2764204257381333e-05
aF4.2723396857768948e-05
aF4.2709673156385025e-05
aF4.272343543639416e-05
aF4.2764273469751299e-05
aF4.2830975670001972e-05
aF4.2921562034356336e-05
aF4.3033338339462952e-05
aF4.3162970659664114e-05
aF4.3306578824902398e-05
aF4.3459846921623373e-05
aF4.3618148371633198e-05
aF4.3776682523327219e-05
aF4.393061909314282e-05
aF4.4075246249410844e-05
aF4.4206117689042488e-05
aF4.4319193773043178e-05
aF4.4410971706904525e-05
aF4.4478599911334534e-05
aF4.4519972144772179e-05
aF4.453379760782808e-05
aF4.4519644155004353e-05
aF4.4477952813614399e-05
aF4.4410022999454436e-05
aF4.4317969047970708e-05
aF4.4204649869025617e-05
aF4.4073574607401546e-05
aF4.392878808561401e-05
aF4.377474047330594e-05
aF4.3616146042301832e-05
aF4.3457836024487778e-05
aF4.3304610508327009e-05
aF4.3161094023914186e-05
aF4.3031599023280166e-05
aF4.2920000915583394e-05
aF4.2829627718965375e-05
aF4.2763166789152168e-05
aF4.2722590515517407e-05
aF4.2709102360716963e-05
aF4.2723104167824415e-05
aF4.2764185262911511e-05
aF4.2831133523696403e-05
aF4.292196824132758e-05
aF4.3033994245125303e-05
aF4.3163876364230499e-05
aF4.3307732848023962e-05
aF4.3461245852570991e-05
aF4.361978653082512e-05
aF4.3778551662286639e-05
aF4.3932708159437773e-05
aF4.4077541240585273e-05
aF4.4208601614949604e-05
aF4.4321846739511654e-05
aF4.441377112569796e-05
aF4.4481520832502963e-05
aF4.4522987698498196e-05
asI140
(lp19
F4.4540029392258034e-05
aF4.4346523998657384e-05
aF4.3777635717077176e-05
aF4.2856828440263998e-05
aF4.1621481664680817e-05
aF4.012054244508107e-05
aF3.8411584021000758e-05
aF3.6557556986428804e-05
aF3.4623527610732878e-05
aF3.2673670052643901e-05
aF3.07687218176081e-05
aF2.8964035713553303e-05
aF2.7308279047626389e-05
aF2.5842753396776955e-05
aF2.4601245008085499e-05
aF2.3610272336903218e-05
aF2.2889575457315867e-05
aF2.2452691126206576e-05
aF2.2307474136350517e-05
aF2.245645619566661e-05
aF2.2896973631080973e-05
aF2.3621040690069535e-05
aF2.4614992391270331e-05
aF2.5858966200564149e-05
aF2.7326331589519089e-05
aF2.8983206760125334e-05
aF3.0788218261658879e-05
aF3.2692657894192335e-05
aF3.4641169254562103e-05
aF3.657305265223336e-05
aF3.8424213996509684e-05
aF4.0129706234512882e-05
aF4.1626729984270118e-05
aF4.285788458161961e-05
aF4.3774403997838145e-05
aF4.4339084669932073e-05
aF4.4528621185025067e-05
aF4.4335112478187186e-05
aF4.3766581004439357e-05
aF4.2846449730378348e-05
aF4.1612032195347429e-05
aF4.0112193287106249e-05
aF3.8404418193797266e-05
aF3.6551573723992816e-05
aF3.4618655085980774e-05
aF3.2669783784189252e-05
aF3.0765665491379568e-05
aF2.8961641277496829e-05
aF2.7306383582998615e-05
aF2.5841211249196825e-05
aF2.459993475311628e-05
aF2.3609099147241494e-05
aF2.2888470168584806e-05
aF2.2451607670974794e-05
aF2.2306387007997155e-05
aF2.2455359254511211e-05
aF2.2895880961744733e-05
aF2.3619989479110476e-05
aF2.4614047050830481e-05
aF2.5858222351252128e-05
aF2.7325918154885929e-05
aF2.89832844074075e-05
aF3.078897279368073e-05
aF3.269428793706246e-05
aF3.4643868603608229e-05
aF3.6576988772307991e-05
aF3.8429505208723496e-05
aF4.0136400831346681e-05
aF4.1634790705196029e-05
aF4.2867181443523863e-05
aF4.3784717424054401e-05
aF4.4350119350118554e-05
asI15
(lp20
F4.453753790060301e-05
aF4.4506164924343581e-05
aF4.4413592875388286e-05
aF4.4262798032529101e-05
aF4.4058612048300283e-05
aF4.3807544692551347e-05
aF4.3517548841464874e-05
aF4.3197739429708239e-05
aF4.2858079721354161e-05
aF4.2509048888875955e-05
aF4.2161304554421204e-05
aF4.1825352775860973e-05
aF4.1511236158403369e-05
aF4.1228248591991961e-05
aF4.0984682817969395e-05
aF4.0787614858223026e-05
aF4.0642727492406412e-05
aF4.0554173574863804e-05
aF4.0524479098836694e-05
aF4.0554485522435765e-05
aF4.0643330882283734e-05
aF4.0788469497251179e-05
aF4.0985730433237815e-05
aF4.1229415175999274e-05
aF4.1512434969848136e-05
aF4.1826487886855484e-05
aF4.2162274808264835e-05
aF4.2509752108953827e-05
aF4.2858416993708167e-05
aF4.3197619271956875e-05
aF4.3516891071295609e-05
aF4.3806283821432509e-05
aF4.4056700050613161e-05
aF4.4260206375820641e-05
aF4.4410313741264146e-05
aF4.4502211597850741e-05
aF4.4532944354260629e-05
aF4.4501520995894606e-05
aF4.4408952085571378e-05
aF4.4258212167025006e-05
aF4.4054129569113816e-05
aF4.3803209415209959e-05
aF4.3513398958632442e-05
aF4.3193806928837393e-05
aF4.285439020868039e-05
aF4.250562179845661e-05
aF4.215815369249385e-05
aF4.1822487129930774e-05
aF4.1508660888262407e-05
aF4.1225966116136696e-05
aF4.0982693912361546e-05
aF4.0785919693096002e-05
aF4.0641326544674255e-05
aF4.0553068366652965e-05
aF4.0523672725265906e-05
aF4.055398294325945e-05
aF4.0643138962363897e-05
aF4.0788596790593014e-05
aF4.0986186715404074e-05
aF4.1230210740985294e-05
aF4.1513579720490925e-05
aF4.182799026249164e-05
aF4.2164140608808761e-05
aF4.2511983289260873e-05
aF4.2861010513873933e-05
aF4.3200566095719935e-05
aF4.3520175403798132e-05
aF4.3809882667774748e-05
aF4.406058315750252e-05
aF4.4264336591076912e-05
aF4.4414647792264151e-05
aF4.4506701253580171e-05
asI145
(lp21
F4.4539637929227755e-05
aF4.4385543054725364e-05
aF4.3932150341830604e-05
aF4.3197157434292762e-05
aF4.2208871960382031e-05
aF4.1004591145897142e-05
aF3.9628552526993756e-05
aF3.8129639183621437e-05
aF3.6559031519326462e-05
aF3.4967983585218907e-05
aF3.340586900512915e-05
aF3.1918595777167131e-05
aF3.0547437803687886e-05
aF2.9328281008867808e-05
aF2.8291239247982622e-05
aF2.7460563983858311e-05
aF2.6854753954245631e-05
aF2.6486766950517496e-05
aF2.6364244076372175e-05
aF2.6489675195727742e-05
aF2.6860459949590706e-05
aF2.7468848780844934e-05
aF2.830177989306497e-05
aF2.9340658038078017e-05
aF3.0561146529899624e-05
aF3.1933062004458419e-05
aF3.3420469460142339e-05
aF3.498207080842258e-05
aF3.6571962284989098e-05
aF3.8140804828929546e-05
aF3.9637409001548572e-05
aF4.1010686272201761e-05
aF4.2211867420914061e-05
aF4.3196843410436906e-05
aF4.3928451489735901e-05
aF4.4378515504537428e-05
aF4.4529458072060094e-05
aF4.4375333861280941e-05
aF4.3922184567251962e-05
aF4.3187680893894671e-05
aF4.2200086317075011e-05
aF4.0996642129099085e-05
aF3.9621524617391662e-05
aF3.8123556815896025e-05
aF3.6553865943823822e-05
aF3.4963663844949196e-05
aF3.3402295124955774e-05
aF3.1915652254645045e-05
aF3.0545005793607056e-05
aF2.9326248111616495e-05
aF2.8289506423508177e-05
aF2.7459049695718849e-05
aF2.6853396101020715e-05
aF2.648552339957614e-05
aF2.636309265402637e-05
aF2.6488613823964433e-05
aF2.6859507301119191e-05
aF2.7468045421963407e-05
aF2.8301189480424453e-05
aF2.9340367814010993e-05
aF3.0561266194165229e-05
aF3.1933720078819577e-05
aF3.3421806524789517e-05
aF3.4984229454711886e-05
aF3.6575074233632453e-05
aF3.8144976305566996e-05
aF3.964270601799046e-05
aF4.1017121805817938e-05
aF4.2219392516777189e-05
aF4.3205343902775605e-05
aF4.3937751372405493e-05
aF4.4388387068976964e-05
asI20
(lp22
F4.4538143979143196e-05
aF4.448334934195261e-05
aF4.432177342609314e-05
aF4.4058823235696366e-05
aF4.3703248818074886e-05
aF4.3266783934559204e-05
aF4.2763675621243403e-05
aF4.2210131151108851e-05
aF4.1623714038232815e-05
aF4.1022721009412664e-05
aF4.042556951345058e-05
aF3.9850220838451421e-05
aF3.9313657962828651e-05
aF3.8831430676482881e-05
aF3.841727406761176e-05
aF3.808280086847329e-05
aF3.7837263907761357e-05
aF3.7687382330948598e-05
aF3.7637224398853522e-05
aF3.7688140420658515e-05
aF3.7838741400883482e-05
aF3.808492182421702e-05
aF3.8419928127608452e-05
aF3.8834477247852004e-05
aF3.9316931646498162e-05
aF3.9853537948799418e-05
aF4.042873547319372e-05
aF4.1025538337926687e-05
aF4.1625990590557521e-05
aF4.2211688218788503e-05
aF4.2764355484746924e-05
aF4.3266456468050162e-05
aF4.3701816794567814e-05
aF4.4056226062806041e-05
aF4.431798915281245e-05
aF4.4478394903527342e-05
aF4.4532073775343405e-05
aF4.4477221940709186e-05
aF4.4315677295027976e-05
aF4.4052842393093823e-05
aF4.3697459339568042e-05
aF4.3261251174023391e-05
aF4.2758452338529277e-05
aF4.220525663879437e-05
aF4.1619214236606573e-05
aF4.1018609507203754e-05
aF4.0421849262187049e-05
aF3.9846886367035817e-05
aF3.9310697867106091e-05
aF3.8828830172658361e-05
aF3.841501743122338e-05
aF3.8080873623304023e-05
aF3.7835654672639504e-05
aF3.7686084269559692e-05
aF3.7636236243978505e-05
aF3.7687467058504265e-05
aF3.7838394005435719e-05
aF3.808491753038218e-05
aF3.8420289231257279e-05
aF3.883522992668736e-05
aF3.9318104212542057e-05
aF3.9855158673311019e-05
aF4.0430830066823874e-05
aF4.1028127218296005e-05
aF4.1629086118706395e-05
aF4.2215292125792721e-05
aF4.2768456730777731e-05
aF4.3271029770561287e-05
aF4.3706822025890809e-05
aF4.4061608650779229e-05
aF4.432368152696756e-05
aF4.4484318924364907e-05
asI150
(lp23
F4.4539193981757715e-05
aF4.4422087930059869e-05
aF4.4077259048046548e-05
aF4.3517451796875556e-05
aF4.2763134211227767e-05
aF4.1841441492746456e-05
aF4.0784825785790573e-05
aF3.9629521256507145e-05
aF3.8413940686971501e-05
aF3.7177114059478496e-05
aF3.5957262768354732e-05
aF3.4790578227028322e-05
aF3.3710244560651062e-05
aF3.2745715732264206e-05
aF3.1922231342025184e-05
aF3.1260535116244971e-05
aF3.0776747368279329e-05
aF3.0482338007415589e-05
aF3.0384149606101683e-05
aF3.0484429503644464e-05
aF3.0780844329122677e-05
aF3.1266467778396654e-05
aF3.1929750945717798e-05
aF3.2754501915623496e-05
aF3.371991563962727e-05
aF3.480070448076812e-05
aF3.5967382631554211e-05
aF3.7186752814332911e-05
aF3.8422630891468291e-05
aF3.9636823803642982e-05
aF4.0790350227676959e-05
aF4.1844864146693433e-05
aF4.2764212634708654e-05
aF4.3516034487144539e-05
aF4.4073289665854897e-05
aF4.4415603905976436e-05
aF4.4530319952909147e-05
aF4.4413166724533901e-05
aF4.4068488328031317e-05
aF4.3509012746724872e-05
aF4.2755180451711394e-05
aF4.1834091079238355e-05
aF4.0778156948395423e-05
aF3.9623572017536639e-05
aF3.8408711992059334e-05
aF3.7172575663323856e-05
aF3.5953360879319713e-05
aF3.4787243857348754e-05
aF3.3707401637137049e-05
aF3.2743288254358305e-05
aF3.192014917140041e-05
aF3.1258738282229816e-05
aF3.0775189021534681e-05
aF3.0480986312092193e-05
aF3.0382988910776199e-05
aF3.0483461077789819e-05
aF3.0780086817635322e-05
aF3.1265957348467976e-05
aF3.1929540922140249e-05
aF3.2754661566798229e-05
aF3.3720527724594122e-05
aF3.4801861221584357e-05
aF3.596917994064897e-05
aF3.718928286659969e-05
aF3.8425973447822755e-05
aF3.9641037011311945e-05
aF4.0795461878609976e-05
aF4.1850864508291682e-05
aF4.2771049931838111e-05
aF4.3523613894228376e-05
aF4.4081476280611352e-05
aF4.4424229674809926e-05
asI25
(lp24
F4.4538696169343262e-05
aF4.4455030141097524e-05
aF4.4208487982066174e-05
aF4.3807719188537245e-05
aF4.3266670086996797e-05
aF4.2603940402987644e-05
aF4.1841951275098727e-05
aF4.1005983885555179e-05
aF4.0123152936845888e-05
aF3.922137775447471e-05
aF3.8328406516482318e-05
aF3.7470937356486184e-05
aF3.6673865647321829e-05
aF3.5959671586295025e-05
aF3.5347948091848965e-05
aF3.4855057473616203e-05
aF3.4493897371992568e-05
aF3.4273752573600838e-05
aF3.4200209481714708e-05
aF3.4275113802560677e-05
aF3.4496558602163118e-05
aF3.4858898257221091e-05
aF3.5352792792105425e-05
aF3.5965295443355007e-05
aF3.6680002851709077e-05
aF3.7477291020304027e-05
aF3.833466030866208e-05
aF3.9227208812644268e-05
aF4.0128245506380775e-05
aF4.1010042993655221e-05
aF4.1844715653479533e-05
aF4.2605193852054183e-05
aF4.3266250542583894e-05
aF4.3805524910990072e-05
aF4.4204480522422497e-05
aF4.4449234021843056e-05
aF4.4531195509045169e-05
aF4.4447473082204748e-05
aF4.4201010702556103e-05
aF4.3800448704529283e-05
aF4.325971767856826e-05
aF4.2597396624637185e-05
aF4.1835882930738045e-05
aF4.1000433100656826e-05
aF4.01181382163477e-05
aF3.9216896710596929e-05
aF3.8324439812283111e-05
aF3.7467453351482533e-05
aF3.6670825248784998e-05
aF3.5957032889047668e-05
aF3.5345670507065134e-05
aF3.4853105176412975e-05
aF3.4492242013531476e-05
aF3.4272375287146262e-05
aF3.419910225359882e-05
aF3.4274280277961787e-05
aF3.4496014360626528e-05
aF3.485867053932003e-05
aF3.5352919605620951e-05
aF3.596582394401579e-05
aF3.6680986895536105e-05
aF3.7478787830932053e-05
aF3.8336726293683636e-05
aF3.9229894688189474e-05
aF4.0131591029840336e-05
aF4.1014071735189157e-05
aF4.1849430329966816e-05
aF4.2610572777667967e-05
aF4.3272245701889737e-05
aF4.381206202980733e-05
aF4.4211461310114552e-05
aF4.4456540511938859e-05
asI155
(lp25
F4.4538696169343262e-05
aF4.4455030141097511e-05
aF4.420848798206616e-05
aF4.3807719188537238e-05
aF4.3266670086996784e-05
aF4.2603940402987644e-05
aF4.184195127509872e-05
aF4.1005983885555186e-05
aF4.0123152936845881e-05
aF3.922137775447471e-05
aF3.8328406516482311e-05
aF3.7470937356486191e-05
aF3.6673865647321829e-05
aF3.5959671586295025e-05
aF3.5347948091848958e-05
aF3.4855057473616203e-05
aF3.4493897371992561e-05
aF3.4273752573600845e-05
aF3.4200209481714708e-05
aF3.427511380256067e-05
aF3.4496558602163118e-05
aF3.4858898257221091e-05
aF3.5352792792105418e-05
aF3.5965295443355001e-05
aF3.6680002851709077e-05
aF3.747729102030402e-05
aF3.833466030866208e-05
aF3.9227208812644261e-05
aF4.0128245506380781e-05
aF4.1010042993655228e-05
aF4.1844715653479533e-05
aF4.2605193852054156e-05
aF4.3266250542583901e-05
aF4.3805524910990079e-05
aF4.4204480522422511e-05
aF4.4449234021843063e-05
aF4.4531195509045176e-05
aF4.4447473082204748e-05
aF4.4201010702556103e-05
aF4.3800448704529283e-05
aF4.3259717678568253e-05
aF4.2597396624637185e-05
aF4.1835882930738045e-05
aF4.1000433100656847e-05
aF4.0118138216347707e-05
aF3.9216896710596935e-05
aF3.8324439812283118e-05
aF3.7467453351482533e-05
aF3.6670825248784998e-05
aF3.5957032889047668e-05
aF3.5345670507065121e-05
aF3.4853105176412962e-05
aF3.449224201353147e-05
aF3.4272375287146255e-05
aF3.419910225359882e-05
aF3.427428027796178e-05
aF3.4496014360626528e-05
aF3.485867053932003e-05
aF3.5352919605620938e-05
aF3.5965823944015784e-05
aF3.6680986895536105e-05
aF3.7478787830932053e-05
aF3.8336726293683636e-05
aF3.9229894688189474e-05
aF4.0131591029840336e-05
aF4.1014071735189157e-05
aF4.1849430329966816e-05
aF4.2610572777667961e-05
aF4.3272245701889744e-05
aF4.3812062029807302e-05
aF4.4211461310114559e-05
aF4.4456540511938859e-05
asI30
(lp26
F4.4539193981757715e-05
aF4.4422087930059869e-05
aF4.4077259048046548e-05
aF4.3517451796875556e-05
aF4.2763134211227767e-05
aF4.1841441492746456e-05
aF4.0784825785790573e-05
aF3.9629521256507145e-05
aF3.8413940686971501e-05
aF3.7177114059478496e-05
aF3.5957262768354732e-05
aF3.4790578227028322e-05
aF3.3710244560651062e-05
aF3.2745715732264206e-05
aF3.1922231342025184e-05
aF3.1260535116244971e-05
aF3.0776747368279329e-05
aF3.0482338007415589e-05
aF3.0384149606101683e-05
aF3.0484429503644464e-05
aF3.0780844329122677e-05
aF3.1266467778396654e-05
aF3.1929750945717798e-05
aF3.2754501915623496e-05
aF3.371991563962727e-05
aF3.480070448076812e-05
aF3.5967382631554211e-05
aF3.7186752814332911e-05
aF3.8422630891468291e-05
aF3.9636823803642982e-05
aF4.0790350227676959e-05
aF4.1844864146693433e-05
aF4.2764212634708654e-05
aF4.3516034487144539e-05
aF4.4073289665854897e-05
aF4.4415603905976436e-05
aF4.4530319952909147e-05
aF4.4413166724533901e-05
aF4.4068488328031317e-05
aF4.3509012746724872e-05
aF4.2755180451711394e-05
aF4.1834091079238355e-05
aF4.0778156948395423e-05
aF3.9623572017536639e-05
aF3.8408711992059334e-05
aF3.7172575663323856e-05
aF3.5953360879319713e-05
aF3.4787243857348754e-05
aF3.3707401637137049e-05
aF3.2743288254358305e-05
aF3.192014917140041e-05
aF3.1258738282229816e-05
aF3.0775189021534681e-05
aF3.0480986312092193e-05
aF3.0382988910776199e-05
aF3.0483461077789819e-05
aF3.0780086817635322e-05
aF3.1265957348467976e-05
aF3.1929540922140249e-05
aF3.2754661566798229e-05
aF3.3720527724594122e-05
aF3.4801861221584357e-05
aF3.596917994064897e-05
aF3.718928286659969e-05
aF3.8425973447822755e-05
aF3.9641037011311945e-05
aF4.0795461878609976e-05
aF4.1850864508291682e-05
aF4.2771049931838111e-05
aF4.3523613894228376e-05
aF4.4081476280611352e-05
aF4.4424229674809926e-05
asI160
(lp27
F4.4538143979143196e-05
aF4.4483349341952624e-05
aF4.4321773426093147e-05
aF4.4058823235696345e-05
aF4.3703248818074886e-05
aF4.3266783934559217e-05
aF4.2763675621243396e-05
aF4.2210131151108857e-05
aF4.1623714038232822e-05
aF4.1022721009412671e-05
aF4.042556951345058e-05
aF3.9850220838451428e-05
aF3.9313657962828651e-05
aF3.8831430676482888e-05
aF3.8417274067611753e-05
aF3.808280086847329e-05
aF3.783726390776135e-05
aF3.7687382330948585e-05
aF3.7637224398853502e-05
aF3.7688140420658509e-05
aF3.7838741400883475e-05
aF3.8084921824217006e-05
aF3.8419928127608445e-05
aF3.8834477247852011e-05
aF3.9316931646498176e-05
aF3.9853537948799438e-05
aF4.042873547319372e-05
aF4.1025538337926708e-05
aF4.1625990590557541e-05
aF4.2211688218788497e-05
aF4.2764355484746903e-05
aF4.3266456468050155e-05
aF4.3701816794567827e-05
aF4.4056226062806034e-05
aF4.4317989152812457e-05
aF4.4478394903527336e-05
aF4.4532073775343426e-05
aF4.4477221940709193e-05
aF4.4315677295027962e-05
aF4.4052842393093823e-05
aF4.3697459339568049e-05
aF4.3261251174023391e-05
aF4.275845233852929e-05
aF4.220525663879437e-05
aF4.161921423660658e-05
aF4.1018609507203747e-05
aF4.0421849262187049e-05
aF3.9846886367035803e-05
aF3.9310697867106084e-05
aF3.8828830172658368e-05
aF3.841501743122338e-05
aF3.8080873623304044e-05
aF3.7835654672639497e-05
aF3.7686084269559692e-05
aF3.7636236243978478e-05
aF3.7687467058504265e-05
aF3.7838394005435692e-05
aF3.808491753038218e-05
aF3.8420289231257286e-05
aF3.883522992668736e-05
aF3.931810421254205e-05
aF3.9855158673311012e-05
aF4.0430830066823874e-05
aF4.1028127218296018e-05
aF4.1629086118706381e-05
aF4.2215292125792728e-05
aF4.2768456730777718e-05
aF4.3271029770561301e-05
aF4.3706822025890809e-05
aF4.4061608650779236e-05
aF4.432368152696756e-05
aF4.4484318924364914e-05
asI35
(lp28
F4.4539637929227762e-05
aF4.4385543054725364e-05
aF4.3932150341830604e-05
aF4.3197157434292775e-05
aF4.2208871960382045e-05
aF4.1004591145897142e-05
aF3.9628552526993763e-05
aF3.8129639183621437e-05
aF3.6559031519326462e-05
aF3.496798358521892e-05
aF3.3405869005129144e-05
aF3.1918595777167118e-05
aF3.0547437803687879e-05
aF2.9328281008867805e-05
aF2.8291239247982625e-05
aF2.7460563983858311e-05
aF2.6854753954245618e-05
aF2.6486766950517489e-05
aF2.6364244076372168e-05
aF2.6489675195727728e-05
aF2.6860459949590693e-05
aF2.746884878084492e-05
aF2.830177989306497e-05
aF2.9340658038078021e-05
aF3.0561146529899618e-05
aF3.1933062004458433e-05
aF3.3420469460142332e-05
aF3.4982070808422586e-05
aF3.6571962284989091e-05
aF3.8140804828929559e-05
aF3.9637409001548572e-05
aF4.1010686272201754e-05
aF4.2211867420914075e-05
aF4.3196843410436906e-05
aF4.3928451489735914e-05
aF4.4378515504537435e-05
aF4.4529458072060115e-05
aF4.4375333861280935e-05
aF4.3922184567251975e-05
aF4.3187680893894678e-05
aF4.2200086317075011e-05
aF4.0996642129099091e-05
aF3.9621524617391648e-05
aF3.8123556815896031e-05
aF3.6553865943823822e-05
aF3.4963663844949203e-05
aF3.3402295124955781e-05
aF3.1915652254645038e-05
aF3.0545005793607063e-05
aF2.9326248111616495e-05
aF2.8289506423508177e-05
aF2.7459049695718843e-05
aF2.6853396101020715e-05
aF2.6485523399576136e-05
aF2.6363092654026366e-05
aF2.6488613823964423e-05
aF2.6859507301119198e-05
aF2.74680454219634e-05
aF2.8301189480424459e-05
aF2.9340367814010986e-05
aF3.0561266194165215e-05
aF3.1933720078819577e-05
aF3.3421806524789531e-05
aF3.4984229454711879e-05
aF3.657507423363246e-05
aF3.8144976305566982e-05
aF3.964270601799046e-05
aF4.1017121805817945e-05
aF4.2219392516777189e-05
aF4.3205343902775605e-05
aF4.3937751372405493e-05
aF4.4388387068976957e-05
asI165
(lp29
F4.4537537900603024e-05
aF4.4506164924343595e-05
aF4.4413592875388306e-05
aF4.4262798032529122e-05
aF4.4058612048300277e-05
aF4.3807544692551367e-05
aF4.3517548841464874e-05
aF4.3197739429708272e-05
aF4.2858079721354181e-05
aF4.2509048888875955e-05
aF4.2161304554421218e-05
aF4.1825352775860973e-05
aF4.1511236158403369e-05
aF4.1228248591991968e-05
aF4.0984682817969395e-05
aF4.0787614858223026e-05
aF4.0642727492406405e-05
aF4.0554173574863804e-05
aF4.0524479098836708e-05
aF4.0554485522435778e-05
aF4.0643330882283734e-05
aF4.0788469497251186e-05
aF4.0985730433237828e-05
aF4.122941517599928e-05
aF4.1512434969848136e-05
aF4.1826487886855498e-05
aF4.2162274808264849e-05
aF4.2509752108953841e-05
aF4.2858416993708188e-05
aF4.3197619271956902e-05
aF4.3516891071295616e-05
aF4.3806283821432509e-05
aF4.4056700050613174e-05
aF4.4260206375820641e-05
aF4.441031374126416e-05
aF4.4502211597850768e-05
aF4.4532944354260643e-05
aF4.4501520995894606e-05
aF4.4408952085571378e-05
aF4.4258212167025013e-05
aF4.4054129569113816e-05
aF4.3803209415209973e-05
aF4.3513398958632456e-05
aF4.3193806928837413e-05
aF4.2854390208680411e-05
aF4.250562179845661e-05
aF4.215815369249387e-05
aF4.1822487129930788e-05
aF4.1508660888262407e-05
aF4.1225966116136703e-05
aF4.098269391236156e-05
aF4.0785919693096002e-05
aF4.0641326544674235e-05
aF4.0553068366652945e-05
aF4.0523672725265906e-05
aF4.0553982943259457e-05
aF4.0643138962363891e-05
aF4.0788596790593021e-05
aF4.0986186715404087e-05
aF4.1230210740985301e-05
aF4.1513579720490925e-05
aF4.182799026249164e-05
aF4.2164140608808767e-05
aF4.2511983289260873e-05
aF4.2861010513873946e-05
aF4.3200566095719949e-05
aF4.3520175403798138e-05
aF4.3809882667774754e-05
aF4.406058315750252e-05
aF4.4264336591076918e-05
aF4.4414647792264165e-05
aF4.4506701253580192e-05
asI40
(lp30
F4.454002939225804e-05
aF4.434652399865739e-05
aF4.3777635717077183e-05
aF4.2856828440263991e-05
aF4.1621481664680837e-05
aF4.0120542445081056e-05
aF3.8411584021000745e-05
aF3.655755698642881e-05
aF3.4623527610732878e-05
aF3.2673670052643907e-05
aF3.076872181760812e-05
aF2.8964035713553323e-05
aF2.7308279047626406e-05
aF2.5842753396776972e-05
aF2.4601245008085506e-05
aF2.3610272336903225e-05
aF2.2889575457315884e-05
aF2.2452691126206586e-05
aF2.2307474136350537e-05
aF2.2456456195666631e-05
aF2.2896973631080983e-05
aF2.3621040690069542e-05
aF2.4614992391270352e-05
aF2.5858966200564156e-05
aF2.7326331589519096e-05
aF2.8983206760125341e-05
aF3.0788218261658893e-05
aF3.2692657894192349e-05
aF3.4641169254562117e-05
aF3.6573052652233366e-05
aF3.8424213996509691e-05
aF4.0129706234512882e-05
aF4.1626729984270118e-05
aF4.285788458161961e-05
aF4.3774403997838145e-05
aF4.4339084669932073e-05
aF4.4528621185025067e-05
aF4.4335112478187173e-05
aF4.3766581004439364e-05
aF4.2846449730378348e-05
aF4.1612032195347429e-05
aF4.0112193287106249e-05
aF3.8404418193797266e-05
aF3.6551573723992816e-05
aF3.4618655085980767e-05
aF3.2669783784189266e-05
aF3.0765665491379581e-05
aF2.8961641277496829e-05
aF2.7306383582998636e-05
aF2.5841211249196828e-05
aF2.4599934753116297e-05
aF2.3609099147241507e-05
aF2.2888470168584819e-05
aF2.2451607670974818e-05
aF2.2306387007997161e-05
aF2.2455359254511232e-05
aF2.2895880961744753e-05
aF2.3619989479110496e-05
aF2.4614047050830495e-05
aF2.5858222351252142e-05
aF2.7325918154885942e-05
aF2.898328440740751e-05
aF3.078897279368075e-05
aF3.2694287937062481e-05
aF3.4643868603608222e-05
aF3.6576988772307991e-05
aF3.842950520872351e-05
aF4.0136400831346687e-05
aF4.1634790705196036e-05
aF4.2867181443523856e-05
aF4.3784717424054415e-05
aF4.4350119350118541e-05
asI170
(lp31
F4.453687953456725e-05
aF4.4522763395917124e-05
aF4.4481080128665533e-05
aF4.4413129578583232e-05
aF4.4321027081601242e-05
aF4.4207633047782406e-05
aF4.407645852682838e-05
aF4.3931550539343548e-05
aF4.3777361626729543e-05
aF4.3618608487534971e-05
aF4.3460124725560318e-05
aF4.3306712652428208e-05
aF4.3162998799756597e-05
aF4.3033297350992569e-05
aF4.2921485153978004e-05
aF4.2830891375689753e-05
aF4.2764204257381326e-05
aF4.2723396857768928e-05
aF4.2709673156385018e-05
aF4.2723435436394147e-05
aF4.2764273469751285e-05
aF4.2830975670001945e-05
aF4.2921562034356329e-05
aF4.3033338339462945e-05
aF4.3162970659664107e-05
aF4.3306578824902392e-05
aF4.3459846921623366e-05
aF4.3618148371633205e-05
aF4.3776682523327199e-05
aF4.3930619093142814e-05
aF4.4075246249410837e-05
aF4.4206117689042488e-05
aF4.4319193773043164e-05
aF4.4410971706904525e-05
aF4.4478599911334527e-05
aF4.4519972144772179e-05
aF4.4533797607828074e-05
aF4.451964415500436e-05
aF4.4477952813614386e-05
aF4.4410022999454422e-05
aF4.4317969047970701e-05
aF4.4204649869025617e-05
aF4.4073574607401533e-05
aF4.3928788085614003e-05
aF4.3774740473305933e-05
aF4.3616146042301825e-05
aF4.3457836024487764e-05
aF4.3304610508327002e-05
aF4.3161094023914186e-05
aF4.3031599023280152e-05
aF4.2920000915583394e-05
aF4.2829627718965375e-05
aF4.2763166789152175e-05
aF4.2722590515517387e-05
aF4.2709102360716949e-05
aF4.2723104167824388e-05
aF4.2764185262911497e-05
aF4.2831133523696396e-05
aF4.2921968241327567e-05
aF4.3033994245125289e-05
aF4.3163876364230499e-05
aF4.3307732848023969e-05
aF4.3461245852570977e-05
aF4.3619786530825106e-05
aF4.3778551662286619e-05
aF4.3932708159437766e-05
aF4.4077541240585267e-05
aF4.4208601614949618e-05
aF4.4321846739511634e-05
aF4.4413771125697967e-05
aF4.4481520832502943e-05
aF4.4522987698498183e-05
asI45
(lp32
F4.4540370463882909e-05
aF4.4306232580868063e-05
aF4.3618456991245452e-05
aF4.2506979581740487e-05
aF4.1019304742781989e-05
aF3.9217266894984169e-05
aF3.7173008251591228e-05
aF3.4964590919004374e-05
aF3.267166796211326e-05
aF3.0371589474220417e-05
aF2.8136228185451528e-05
aF2.6029692423544165e-05
aF2.4106971657590707e-05
aF2.2413448770580806e-05
aF2.0985126359244448e-05
aF1.9849358641211156e-05
aF1.902585719074217e-05
aF1.8527744554294684e-05
aF1.8362459040775638e-05
aF1.8532360036598603e-05
aF1.903493994874861e-05
aF1.9862611319266544e-05
aF2.1002101782079865e-05
aF2.2433551753740272e-05
aF2.4129466084480288e-05
aF2.6053716379968207e-05
aF2.8160819298204565e-05
aF3.0395721332227784e-05
aF3.2694296756386841e-05
aF3.4984709493666653e-05
aF3.7189702976111579e-05
aF3.9229771538981304e-05
aF4.1027045191675582e-05
aF4.25096039575605e-05
aF4.3615847505305377e-05
aF4.4298497975207946e-05
aF4.4527820732973028e-05
aF4.4293712701381822e-05
aF4.3606424310099984e-05
aF4.2495832900877857e-05
aF4.1009349843928268e-05
aF3.9208695440573545e-05
aF3.7165892111821902e-05
aF3.4958891321575547e-05
aF3.266725652286626e-05
aF3.0368276575403236e-05
aF2.8133793558514402e-05
aF2.6027913172319896e-05
aF2.4105644131992282e-05
aF2.2412402346621479e-05
aF2.0984228931504851e-05
aF1.9848515159622098e-05
aF1.9025003638203923e-05
aF1.8526840244716675e-05
aF1.8361480009356423e-05
aF1.8531295675060539e-05
aF1.903379404756537e-05
aF1.9861407491244684e-05
aF2.1000892047383324e-05
aF2.2432426057641446e-05
aF2.4128559875115992e-05
aF2.6053213241184214e-05
aF2.8160946100309303e-05
aF3.0396734430379893e-05
aF3.2696459318424156e-05
aF3.4988261842647971e-05
aF3.7194829556039418e-05
aF3.9236569380314932e-05
aF4.1035499229435544e-05
aF4.2519574029723607e-05
aF4.3627070323867925e-05
aF4.4310605038858947e-05
asI175
(lp33
F4.4536171672620396e-05
aF4.4532620642942015e-05
aF4.4522119925328753e-05
aF4.4504990784419961e-05
aF4.4481756877956322e-05
aF4.4453127956389932e-05
aF4.4419977820803612e-05
aF4.4383317266509239e-05
aF4.4344262895687073e-05
aF4.4304002804173839e-05
aF4.4263760231778604e-05
aF4.4224756311052016e-05
aF4.4188173056858263e-05
aF4.4155117710588747e-05
aF4.4126589491835707e-05
aF4.4103449721044951e-05
aF4.4086396163734045e-05
aF4.4075942314969219e-05
aF4.4072402196365108e-05
aF4.407588108089741e-05
aF4.4086272396797275e-05
aF4.4103260893775829e-05
aF4.4126331985548282e-05
aF4.4154787014719058e-05
aF4.4187764022287563e-05
aF4.4224263447380111e-05
aF4.4263178036791242e-05
aF4.4303326112504601e-05
aF4.4343487232958439e-05
aF4.4382439195081978e-05
aF4.4418995263665475e-05
aF4.4452040486653249e-05
aF4.4480565962855724e-05
aF4.4503699974532977e-05
aF4.4520734981889844e-05
aF4.453114959847497e-05
aF4.4534624822564643e-05
aF4.4531053984664691e-05
aF4.4520546078389607e-05
aF4.4503422362920907e-05
aF4.448020635087103e-05
aF4.4451607516256816e-05
aF4.4418499264288129e-05
aF4.4381891889545759e-05
aF4.4342901404975595e-05
aF4.430271524580066e-05
aF4.4262555936726034e-05
aF4.4223643856429889e-05
aF4.4187160240890248e-05
aF4.4154211538768142e-05
aF4.4125796171261293e-05
aF4.4102774659776083e-05
aF4.4085843972067514e-05
aF4.4075516805823994e-05
aF4.4072106382441567e-05
aF4.4075717166918578e-05
aF4.4086241765896309e-05
aF4.4103364087919543e-05
aF4.4126568680725778e-05
aF4.4155155992426841e-05
aF4.4188263139553297e-05
aF4.4224889608139292e-05
aF4.4263927167822484e-05
aF4.4304193147305436e-05
aF4.4344466106886534e-05
aF4.438352285478626e-05
aF4.4420175693300239e-05
aF4.4453308752631368e-05
aF4.4481912277997573e-05
aF4.4505113781463779e-05
aF4.4522205054496174e-05
aF4.4532664159227635e-05
asI50
(lp34
F4.4540663779598497e-05
aF4.4265907057807625e-05
aF4.3459475737042945e-05
aF4.2158309192674812e-05
aF4.042081128971997e-05
aF3.8322576082787061e-05
aF3.5951119480504187e-05
aF3.3400195665960104e-05
aF3.076427819123931e-05
aF2.8133708708545798e-05
aF2.5590880590802016e-05
aF2.320765715886827e-05
aF2.1044053337844562e-05
aF1.914805982316888e-05
aF1.7556377057711821e-05
aF1.6295760174000586e-05
aF1.5384654842431189e-05
aF1.4834820967078468e-05
aF1.4652686672115144e-05
aF1.4840239132894578e-05
aF1.539533339450023e-05
aF1.6311379746341327e-05
aF1.7576450898664274e-05
aF1.9171929339765564e-05
aF2.1070889274337192e-05
aF2.3236470859758772e-05
aF2.5620549024380865e-05
aF2.8163015216072476e-05
aF3.0791968455984607e-05
aF3.342504553395726e-05
aF3.5972008537769626e-05
aF3.833855889805537e-05
aF4.0431177499916586e-05
aF4.2162624462884777e-05
aF4.3457598063268547e-05
aF4.4257976524018915e-05
aF4.4527068038526225e-05
aF4.4252379896027948e-05
aF4.3446578266578587e-05
aF4.214652297979347e-05
aF4.0410493038535211e-05
aF3.8313931425559718e-05
aF3.5944198515717814e-05
aF3.3394908968017187e-05
aF3.0760428641368748e-05
aF2.8131032305887859e-05
aF2.5589088716410688e-05
aF2.3206473546793576e-05
aF2.1043240918598234e-05
aF1.9147435127511366e-05
aF1.7555812446389133e-05
aF1.629517631920972e-05
aF1.5384007315898518e-05
aF1.4834085354763883e-05
aF1.4651846362449228e-05
aF1.4839278953412938e-05
aF1.5394240806147922e-05
aF1.6310153581481349e-05
aF1.7575115894859055e-05
aF1.9170553225907347e-05
aF2.1069598151229507e-05
aF2.323545829950715e-05
aF2.5620074843929538e-05
aF2.816339129867671e-05
aF3.0793531178092025e-05
aF3.3428116995935271e-05
aF3.5976851420678205e-05
aF3.834533180841647e-05
aF4.0439898583829866e-05
aF4.2173150508793841e-05
aF4.3469624208526623e-05
aF4.4271058335260257e-05
asI180
(lp35
F4.4535418343269226e-05
aF4.4535418343269226e-05
aF4.4535418343269226e-05
aF4.4535418343269226e-05
aF4.4535418343269226e-05
aF4.4535418343269226e-05
aF4.4535418343269226e-05
aF4.4535418343269226e-05
aF4.4535418343269226e-05
aF4.4535418343269226e-05
aF4.4535418343269226e-05
aF4.4535418343269226e-05
aF4.4535418343269226e-05
aF4.4535418343269226e-05
aF4.4535418343269226e-05
aF4.4535418343269226e-05
aF4.4535418343269226e-05
aF4.4535418343269226e-05
aF4.4535418343269226e-05
aF4.4535418343269226e-05
aF4.4535418343269226e-05
aF4.4535418343269226e-05
aF4.4535418343269226e-05
aF4.4535418343269226e-05
aF4.4535418343269226e-05
aF4.4535418343269226e-05
aF4.4535418343269226e-05
aF4.4535418343269226e-05
aF4.4535418343269226e-05
aF4.4535418343269226e-05
aF4.4535418343269226e-05
aF4.4535418343269226e-05
aF4.4535418343269226e-05
aF4.4535418343269226e-05
aF4.4535418343269226e-05
aF4.4535418343269226e-05
aF4.4535418343269226e-05
aF4.4535418343269226e-05
aF4.4535418343269226e-05
aF4.4535418343269226e-05
aF4.4535418343269219e-05
aF4.4535418343269219e-05
aF4.4535418343269219e-05
aF4.4535418343269219e-05
aF4.4535418343269219e-05
aF4.4535418343269219e-05
aF4.4535418343269219e-05
aF4.4535418343269219e-05
aF4.4535418343269219e-05
aF4.4535418343269219e-05
aF4.4535418343269219e-05
aF4.4535418343269219e-05
aF4.4535418343269219e-05
aF4.4535418343269219e-05
aF4.4535418343269219e-05
aF4.4535418343269219e-05
aF4.4535418343269219e-05
aF4.4535418343269219e-05
aF4.4535418343269219e-05
aF4.4535418343269219e-05
aF4.4535418343269219e-05
aF4.4535418343269219e-05
aF4.4535418343269219e-05
aF4.4535418343269219e-05
aF4.4535418343269219e-05
aF4.4535418343269219e-05
aF4.4535418343269219e-05
aF4.4535418343269219e-05
aF4.4535418343269219e-05
aF4.4535418343269226e-05
aF4.4535418343269226e-05
aF4.4535418343269226e-05
asI55
(lp36
F4.4540912338341055e-05
aF4.4226784283881924e-05
aF4.3305524019888042e-05
aF4.1821367549618601e-05
aF3.9844020935992909e-05
aF3.7463239715125798e-05
aF3.478219275539031e-05
aF3.1910373733095603e-05
aF2.8956815461997426e-05
aF2.6024249491077402e-05
aF2.3204664186911579e-05
aF2.0576487356874377e-05
aF1.8203393798761441e-05
aF1.6134546689929917e-05
aF1.4405945411749817e-05
aF1.3042478927749586e-05
aF1.2060269287840126e-05
aF1.1468922554463225e-05
aF1.127336964612911e-05
aF1.1475063445160656e-05
aF1.2072390814806741e-05
aF1.3060253125871301e-05
aF1.4428864179662747e-05
aF1.6161909008295393e-05
aF1.823429861989121e-05
aF2.0609838581889159e-05
aF2.3239193287307545e-05
aF2.6058559168786835e-05
aF2.8989444460612936e-05
aF3.1939878976471544e-05
aF3.4807241110935024e-05
aF3.7482698704224426e-05
aF3.9857036433977025e-05
aF4.1827417446933233e-05
aF4.3304440006875191e-05
aF4.4218738881987505e-05
aF4.4526374060662125e-05
aF4.421235686518736e-05
aF4.3291874876614679e-05
aF4.180906082986036e-05
aF3.9833460360290439e-05
aF3.7454637294510815e-05
aF3.4775566626850968e-05
aF3.1905572904356835e-05
aF2.8953564661757384e-05
aF2.6022204470083703e-05
aF2.3203467119411997e-05
aF2.0575813337842407e-05
aF1.8202982283699793e-05
aF1.6134215312867618e-05
aF1.4405587156256577e-05
aF1.3042046482066614e-05
aF1.2059752203846225e-05
aF1.1468323426982983e-05
aF1.1272685020485733e-05
aF1.1474273766407682e-05
aF1.20714617321913e-05
aF1.3059148156146935e-05
aF1.4427566407418464e-05
aF1.6160447457917372e-05
aF1.8232773475993409e-05
aF2.0608438857045132e-05
aF2.323820107443403e-05
aF2.6058336375369917e-05
aF2.8990400794894633e-05
aF3.1942423566450143e-05
aF3.4811723851637425e-05
aF3.7489350447579809e-05
aF3.9865918666715662e-05
aF4.183839157735345e-05
aF4.3317163654312113e-05
aF4.4232692015077667e-05
asI60
(lp37
F4.4541119320705097e-05
aF4.4190062093679159e-05
aF4.3161258780435654e-05
aF4.150624324751245e-05
aF3.9305978256588986e-05
aF3.6664229609240217e-05
aF3.3699502252537971e-05
aF3.0536501298504478e-05
aF2.7298060352661367e-05
aF2.4098324661463368e-05
aF2.1037726836864152e-05
aF1.8200000032011674e-05
aF1.5651189253586316e-05
aF1.3440387532942702e-05
aF1.1601764829799535e-05
aF1.0157380623923992e-05
aF9.1202678113469963e-06
aF8.4973279350687894e-06
aF8.2916651554099932e-06
aF8.50409050845391e-06
aF9.1336367225025227e-06
aF1.0177031760657727e-05
aF1.1627186104994048e-05
aF1.3470856280233551e-05
aF1.5685754998328667e-05
aF1.8237481204106945e-05
aF2.1076729108944538e-05
aF2.4137286009643818e-05
aF2.7335323816731348e-05
aF3.0570411311839243e-05
aF3.3728515228552645e-05
aF3.6687025341941283e-05
aF3.9321556716558377e-05
aF4.1513992287555706e-05
aF4.3160982247269978e-05
aF4.4181964263542416e-05
aF4.4525749152400513e-05
aF4.4174846305110065e-05
aF4.3146969218859789e-05
aF4.1493523115207866e-05
aF3.9295272650531854e-05
aF3.6655749454750505e-05
aF3.3693225439527205e-05
aF3.0532207646003228e-05
aF2.7295391082055353e-05
aF2.4096853526992774e-05
aF2.1037029438061311e-05
aF1.8199709892435061e-05
aF1.5651033209006979e-05
aF1.3440197764960609e-05
aF1.1601469460314947e-05
aF1.0156978351484071e-05
aF9.1197941803645147e-06
aF8.4968213935626244e-06
aF8.2911402495729677e-06
aF8.5035237003776293e-06
aF9.1329677608543077e-06
aF1.0176180630030812e-05
aF1.1626082654984143e-05
aF1.3469477020357762e-05
aF1.5684159596863924e-05
aF1.8235840324487238e-05
aF2.1075335695752419e-05
aF2.4136544195005438e-05
aF2.733571318940613e-05
aF3.0572428948012409e-05
aF3.3732602826246313e-05
aF3.6693492968173189e-05
aF3.933051697277453e-05
aF4.1525318298806311e-05
aF4.3174299515139013e-05
aF4.4196680548455353e-05
asI65
(lp38
F4.4541287910615039e-05
aF4.4156863041196412e-05
aF4.3031024117615418e-05
aF4.1222276159371418e-05
aF3.8822295413295113e-05
aF3.594810401009996e-05
aF3.273259421388623e-05
aF2.9314569026676243e-05
aF2.5829429951636088e-05
aF2.240144208417766e-05
aF1.9138192926919983e-05
aF1.6127500511370383e-05
aF1.3436683406586634e-05
aF1.1113830432709838e-05
aF9.1905297355007687e-06
aF7.6854404349537973e-06
aF6.6081016028691396e-06
aF5.962448046508589e-06
aF5.7496129759693845e-06
aF5.969721404504635e-06
aF6.6225011089786457e-06
aF7.7066556389433919e-06
aF9.218058740012795e-06
aF1.1146946765083274e-05
aF1.3474407689126702e-05
aF1.6168587679987456e-05
aF1.9181144905625315e-05
aF2.2444552872016422e-05
aF2.587086514824828e-05
aF2.9352475526952819e-05
aF3.276522924451141e-05
aF3.5973967292784895e-05
aF3.8840245459576832e-05
aF4.1231612564294548e-05
aF4.3031522480301457e-05
aF4.4148757078590613e-05
aF4.4525202827946392e-05
aF4.4140974643376173e-05
aF4.3016202266361222e-05
aF4.1209236454516494e-05
aF3.8811517626294317e-05
aF3.5939791733590861e-05
aF3.2726680040630508e-05
aF2.9310760553221417e-05
aF2.5827284561587203e-05
aF2.2400454275705746e-05
aF1.913787747727782e-05
aF1.6127457652128942e-05
aF1.3436637348051183e-05
aF1.111363863325871e-05
aF9.19016594069618e-06
aF7.6849587500809736e-06
aF6.6075912316573858e-06
aF5.9619887976956035e-06
aF5.749240489457511e-06
aF5.9694087065387265e-06
aF6.6221600096482563e-06
aF7.7061580222617734e-06
aF9.217274308220654e-06
aF1.1145790629758114e-05
aF1.3472888750431325e-05
aF1.6166847459850969e-05
aF1.9179476853521243e-05
aF2.2443394454849252e-05
aF2.5870759266787664e-05
aF2.9354003510666625e-05
aF3.2768923906568007e-05
aF3.5980219940761978e-05
aF3.8849223927689339e-05
aF4.1243207139747024e-05
aF4.3045332617946761e-05
aF4.4164124553816499e-05
asI70
(lp39
F4.454142112649005e-05
aF4.412820057013138e-05
aF4.2918725177719311e-05
aF4.0977803260595955e-05
aF3.8406768251234518e-05
aF3.533453244257443e-05
aF3.1906799028964327e-05
aF2.8274793523266126e-05
aF2.4584822933238932e-05
aF2.0969724547039423e-05
aF1.7542889597809001e-05
aF1.4395120869350256e-05
aF1.1594185032308028e-05
aF9.1866089681414382e-06
aF7.2010757509143787e-06
aF5.6527031486829763e-06
aF4.5475159331782998e-06
aF3.8865209640910461e-06
aF3.6689271493541833e-06
aF3.8941939480492147e-06
aF4.5627266345063396e-06
aF5.67516077467823e-06
aF7.2302979177515012e-06
aF9.2218782650039124e-06
aF1.1634509627828477e-05
aF1.4439211965233309e-05
aF1.7589167785516902e-05
aF2.1016363884638279e-05
aF2.4629835900831833e-05
aF2.8316152596613027e-05
aF3.1942582712877008e-05
aF3.5363076953835421e-05
aF3.8426802417551019e-05
aF4.0988544933833478e-05
aF4.2919922935368152e-05
aF4.4120113881670259e-05
aF4.4524743545739521e-05
aF4.4111758323882616e-05
aF4.2903475333160655e-05
aF4.0964524407716696e-05
aF3.8395967734155778e-05
aF3.5326402383777062e-05
aF3.19012258777598e-05
aF2.8271415041034592e-05
aF2.4583117845591465e-05
aF2.0969115308650322e-05
aF1.7542838455687518e-05
aF1.4395203150587525e-05
aF1.1594129956372709e-05
aF9.1863055708151076e-06
aF7.2005481207194799e-06
aF5.6520640099252216e-06
aF4.5469101655030037e-06
aF3.8860709731852406e-06
aF3.6686904973568531e-06
aF3.8941408527129935e-06
aF4.5627413636615537e-06
aF5.6750670107624064e-06
aF7.2299041853548402e-06
aF9.2210358457066895e-06
aF1.1633172456941379e-05
aF1.443748634623828e-05
aF1.7587339937590941e-05
aF2.1014895792724543e-05
aF2.4629324747839406e-05
aF2.8317255752026711e-05
aF3.1945917731358138e-05
aF3.5369112698136013e-05
aF3.8435761499804065e-05
aF4.1000337741100062e-05
aF4.2934128977507703e-05
aF4.4136017639136841e-05
asI75
(lp40
F4.4541521667579745e-05
aF4.4104948599030425e-05
aF4.2827716752542397e-05
aF4.0779941417683681e-05
aF3.8071066437502427e-05
aF3.483994968936109e-05
aF3.1242946654739586e-05
aF2.7441523652551504e-05
aF2.3590863471261898e-05
aF1.9830637711823925e-05
aF1.627868723405573e-05
aF1.3027868107277636e-05
aF1.0145874318880389e-05
aF7.6775062489496599e-06
aF5.648648928508324e-06
aF4.0711567140398813e-06
aF2.9478861152848799e-06
aF2.2772374649725483e-06
aF2.0567192500239828e-06
aF2.2852054207989366e-06
aF2.9636992750628347e-06
aF4.0945456009644984e-06
aF5.6791543433546195e-06
aF7.7144266660982966e-06
aF1.0188216523164173e-05
aF1.3074315650651552e-05
aF1.6327600664087958e-05
aF1.9880097077978776e-05
aF2.3638757352506592e-05
aF2.7485680557049665e-05
aF3.1281295549734948e-05
aF3.4870688614206757e-05
aF3.8092813733937723e-05
aF4.0791844681192162e-05
aF4.2829500689994212e-05
aF4.409689367682714e-05
aF4.45243785134502e-05
aF4.4088073511906701e-05
aF4.2812139213585981e-05
aF4.0766491325801871e-05
aF3.806027174402792e-05
aF3.4831989555812033e-05
aF3.1237665185428399e-05
aF2.7438496819212239e-05
aF2.3589501980578389e-05
aF1.9830303287267179e-05
aF1.6278799758973797e-05
aF1.3027985625376699e-05
aF1.0145735364462303e-05
aF7.6770323595738349e-06
aF5.6479126551879621e-06
aF4.0703257615766528e-06
aF2.9471569194269233e-06
aF2.2767716727603007e-06
aF2.0565947308004915e-06
aF2.2853902372012091e-06
aF2.9640530568214662e-06
aF4.0948484183129764e-06
aF5.6791587971069389e-06
aF7.7139248277293694e-06
aF1.0187110011889854e-05
aF1.307267511932046e-05
aF1.6325700954321812e-05
aF1.9878416854045838e-05
aF2.3637937302876624e-05
aF2.7486441794911477e-05
aF3.128432843223654e-05
aF3.4876529995392364e-05
aF3.8101735598943811e-05
aF4.0803777463792945e-05
aF4.2844009592964788e-05
aF4.4113216593854257e-05
asI80
(lp41
F4.4541591780609304e-05
aF4.4087815390476696e-05
aF4.2760709082026789e-05
aF4.0634409380639554e-05
aF3.7824493950184658e-05
aF3.4477319444729663e-05
aF3.0757236690098819e-05
aF2.6833347950474482e-05
aF2.2867388712097717e-05
aF1.9003994318871089e-05
aF1.5364134152838168e-05
aF1.2041966707420057e-05
aF9.1048857494136339e-06
aF6.5961624623023612e-06
aF4.5393758280243811e-06
aF2.9437616618007534e-06
aF1.8096699188622164e-06
aF1.1334560984334198e-06
aF9.1130142639478199e-07
aF1.14162424454489e-06
aF1.8258942940175588e-06
aF2.9677915688206789e-06
aF4.5707733780992631e-06
aF6.6342427674156431e-06
aF9.1486596516764977e-06
aF1.2090101988574103e-05
aF1.5414950659546284e-05
aF1.9055504859566641e-05
aF2.2917390869735918e-05
aF2.6879562810630794e-05
aF3.0797480448387966e-05
aF3.4509685125766298e-05
aF3.78475153966719e-05
aF4.0647180085391903e-05
aF4.2762934976235955e-05
aF4.4079792419031464e-05
aF4.4524113520370461e-05
aF4.4070630078096221e-05
aF4.2744900475421092e-05
aF4.0620845252425399e-05
aF3.7813716360236056e-05
aF3.4469495839977805e-05
aF3.0752177105506455e-05
aF2.6830579867715855e-05
aF2.2866270338462476e-05
aF1.900384139939135e-05
aF1.5364335618385575e-05
aF1.2042069675340175e-05
aF9.1046387541423742e-06
aF6.5955150347610133e-06
aF4.5384406571443421e-06
aF2.9427512435124002e-06
aF1.808822336372814e-06
aF1.1329645852372721e-06
aF9.1126025296550997e-07
aF1.1419999625057745e-06
aF1.8265270841836702e-06
aF2.9684268073243888e-06
aF4.5711188661853391e-06
aF6.634042677614957e-06
aF9.1477725740758896e-06
aF1.2088568155932342e-05
aF1.5413033246182848e-05
aF1.9053692843622916e-05
aF2.2916356569887087e-05
aF2.6880075401007622e-05
aF3.0800286216602024e-05
aF3.4515373943531844e-05
aF3.7856398503963631e-05
aF4.0659204894998305e-05
aF4.2777657284904131e-05
aF4.4096415782027493e-05
asI85
(lp42
F4.4541633151175077e-05
aF4.4077322439333675e-05
aF4.2719692781052267e-05
aF4.0545389811620902e-05
aF3.7673813609136291e-05
aF3.4255984239145998e-05
aF3.0461209593455793e-05
aF2.6463305057650592e-05
aF2.2428023262175199e-05
aF1.8503008232336225e-05
aF1.4811081840239188e-05
aF1.1447112159451791e-05
aF8.4782067889955992e-06
aF5.9465946349193176e-06
aF3.8743426752138921e-06
aF2.2689964722295075e-06
aF1.1293018259130631e-06
aF4.5031241385113415e-07
aF2.2736716790315716e-07
aF4.585958648590196e-07
aF1.1457641189400863e-06
aF2.2933996947167456e-06
aF3.9062637602443013e-06
aF5.9853609589642796e-06
aF8.5228338263441093e-06
aF1.14962599945279e-05
aF1.4863046917759335e-05
aF1.8555763072562238e-05
aF2.2479309881471177e-05
aF2.6510778215106548e-05
aF3.0502615344987703e-05
aF3.4289349948037145e-05
aF3.7697620057185164e-05
aF4.0558696357609346e-05
aF4.2722193339717739e-05
aF4.4069322422161087e-05
aF4.452395280189809e-05
aF4.405995058695955e-05
aF4.2703746797912153e-05
aF4.0531760677733383e-05
aF3.7663051554450713e-05
aF3.4248248609241295e-05
aF3.0456288341814605e-05
aF2.6460694724909722e-05
aF2.2427048917184184e-05
aF1.8502956972232601e-05
aF1.4811323786061415e-05
aF1.1447188534786105e-05
aF8.477873603119661e-06
aF5.9458202839767966e-06
aF3.8732662994802267e-06
aF2.2678597945435609e-06
aF1.1283699635711497e-06
aF4.4979905711670768e-07
aF2.2737723005204483e-07
aF4.5909500611937507e-07
aF1.1465800743331938e-06
aF2.2942555311413227e-06
aF3.9068383453788127e-06
aF5.985367341674092e-06
aF8.5221023553912922e-06
aF1.1494810508220451e-05
aF1.4861134033569005e-05
aF1.8553881216961265e-05
aF2.2478150528449342e-05
aF2.6511140402954288e-05
aF3.050528055982504e-05
aF3.4294941755788405e-05
aF3.7706474956054379e-05
aF4.0570773102389316e-05
aF4.2737042461103441e-05
aF4.4086126455726157e-05
asI90
(lp43
F4.4541646823495541e-05
aF4.4073788965855243e-05
aF4.2705884288860431e-05
aF4.0515431287348439e-05
aF3.7623128466440497e-05
aF3.418157835772848e-05
aF3.0361768382918524e-05
aF2.6339107203930012e-05
aF2.2280700779572768e-05
aF1.8335200841166506e-05
aF1.4626042158777592e-05
aF1.1248316712426885e-05
aF8.2690183520537616e-06
aF5.7300071210895823e-06
aF3.6528240634639671e-06
aF2.0444310679355585e-06
aF9.0302224479370331e-07
aF2.2320468751523807e-07
aF2.8830760839900829e-11
aF2.3152570903390515e-07
aF9.1956225434165194e-07
aF2.0689566769547836e-06
aF3.6849174987559407e-06
aF5.7690002445668164e-06
aF8.3139285668893615e-06
aF1.12978018493988e-05
aF1.467839104680616e-05
aF1.8388372590502184e-05
aF2.2332418726234003e-05
aF2.6387003682422954e-05
aF3.0403565647009311e-05
aF3.4215281428527879e-05
aF3.7647200031758519e-05
aF4.0528919038273444e-05
aF4.2708478003036694e-05
aF4.4065797238793088e-05
aF4.4523898939920149e-05
aF4.4056354867690659e-05
aF4.268989273072145e-05
aF4.0501781064787572e-05
aF3.761237247821022e-05
aF3.4173873060763936e-05
aF3.0356894085378174e-05
aF2.633654981409549e-05
aF2.2279774039616048e-05
aF1.8335182120183239e-05
aF1.4626295272446337e-05
aF1.124838104013603e-05
aF8.2686526547367794e-06
aF5.7291864445454567e-06
aF3.6516967762655409e-06
aF2.0432490419829039e-06
aF9.0205996150976543e-07
aF2.2268291516355909e-07
aF5.6168293882258681e-11
aF2.3206752248724675e-07
aF9.2044199711474617e-07
aF2.0698897231468928e-06
aF3.685572717892192e-06
aF5.7690798991369614e-06
aF8.3132531715232556e-06
aF1.1296384070594435e-05
aF1.467648237566732e-05
aF1.8386469135663161e-05
aF2.233121837138849e-05
aF2.6387315593205262e-05
aF3.0406183322690571e-05
aF3.4220839990936916e-05
aF3.765604469416017e-05
aF4.0541012538051804e-05
aF4.2723369183995533e-05
aF4.4082661561458646e-05
asI95
(lp44
F4.4541633151175077e-05
aF4.4077322439333675e-05
aF4.271969278105226e-05
aF4.0545389811620902e-05
aF3.7673813609136291e-05
aF3.4255984239145998e-05
aF3.0461209593455789e-05
aF2.6463305057650592e-05
aF2.2428023262175195e-05
aF1.8503008232336225e-05
aF1.4811081840239187e-05
aF1.1447112159451791e-05
aF8.4782067889955992e-06
aF5.9465946349193176e-06
aF3.8743426752138921e-06
aF2.2689964722295071e-06
aF1.1293018259130629e-06
aF4.5031241385113373e-07
aF2.2736716790315653e-07
aF4.5859586485901896e-07
aF1.1457641189400854e-06
aF2.293399694716746e-06
aF3.9062637602443004e-06
aF5.9853609589642796e-06
aF8.5228338263441093e-06
aF1.14962599945279e-05
aF1.4863046917759337e-05
aF1.8555763072562238e-05
aF2.2479309881471177e-05
aF2.6510778215106548e-05
aF3.0502615344987699e-05
aF3.4289349948037145e-05
aF3.7697620057185164e-05
aF4.0558696357609346e-05
aF4.2722193339717739e-05
aF4.4069322422161087e-05
aF4.452395280189809e-05
aF4.405995058695955e-05
aF4.2703746797912153e-05
aF4.0531760677733383e-05
aF3.7663051554450713e-05
aF3.4248248609241295e-05
aF3.0456288341814602e-05
aF2.6460694724909722e-05
aF2.2427048917184184e-05
aF1.8502956972232601e-05
aF1.4811323786061413e-05
aF1.1447188534786108e-05
aF8.477873603119661e-06
aF5.9458202839767966e-06
aF3.8732662994802275e-06
aF2.2678597945435605e-06
aF1.1283699635711491e-06
aF4.4979905711670741e-07
aF2.273772300520443e-07
aF4.5909500611937428e-07
aF1.146580074333193e-06
aF2.2942555311413223e-06
aF3.9068383453788136e-06
aF5.985367341674092e-06
aF8.5221023553912939e-06
aF1.1494810508220451e-05
aF1.4861134033569005e-05
aF1.8553881216961265e-05
aF2.2478150528449342e-05
aF2.6511140402954285e-05
aF3.050528055982504e-05
aF3.4294941755788405e-05
aF3.7706474956054373e-05
aF4.0570773102389316e-05
aF4.2737042461103441e-05
aF4.4086126455726157e-05
asI100
(lp45
F4.4541591780609304e-05
aF4.4087815390476689e-05
aF4.2760709082026789e-05
aF4.0634409380639554e-05
aF3.7824493950184658e-05
aF3.4477319444729663e-05
aF3.0757236690098819e-05
aF2.6833347950474482e-05
aF2.2867388712097713e-05
aF1.9003994318871089e-05
aF1.5364134152838168e-05
aF1.2041966707420053e-05
aF9.1048857494136322e-06
aF6.5961624623023603e-06
aF4.5393758280243802e-06
aF2.9437616618007522e-06
aF1.8096699188622153e-06
aF1.1334560984334185e-06
aF9.1130142639478072e-07
aF1.141624244544889e-06
aF1.8258942940175579e-06
aF2.9677915688206776e-06
aF4.5707733780992631e-06
aF6.6342427674156431e-06
aF9.148659651676496e-06
aF1.2090101988574103e-05
aF1.5414950659546284e-05
aF1.9055504859566638e-05
aF2.2917390869735918e-05
aF2.687956281063079e-05
aF3.0797480448387966e-05
aF3.4509685125766298e-05
aF3.78475153966719e-05
aF4.0647180085391897e-05
aF4.2762934976235955e-05
aF4.4079792419031464e-05
aF4.4524113520370461e-05
aF4.4070630078096221e-05
aF4.2744900475421092e-05
aF4.0620845252425399e-05
aF3.7813716360236049e-05
aF3.4469495839977805e-05
aF3.0752177105506455e-05
aF2.6830579867715851e-05
aF2.2866270338462476e-05
aF1.900384139939135e-05
aF1.5364335618385575e-05
aF1.2042069675340175e-05
aF9.1046387541423725e-06
aF6.5955150347610124e-06
aF4.5384406571443412e-06
aF2.9427512435123985e-06
aF1.8088223363728127e-06
aF1.1329645852372708e-06
aF9.112602529655087e-07
aF1.141999962505773e-06
aF1.8265270841836693e-06
aF2.968426807324388e-06
aF4.5711188661853382e-06
aF6.6340426776149544e-06
aF9.1477725740758879e-06
aF1.2088568155932341e-05
aF1.5413033246182848e-05
aF1.9053692843622913e-05
aF2.2916356569887087e-05
aF2.6880075401007619e-05
aF3.0800286216602024e-05
aF3.4515373943531844e-05
aF3.7856398503963624e-05
aF4.0659204894998298e-05
aF4.2777657284904131e-05
aF4.4096415782027493e-05
asI105
(lp46
F4.4541521667579718e-05
aF4.4104948599030404e-05
aF4.2827716752542397e-05
aF4.0779941417683674e-05
aF3.807106643750242e-05
aF3.483994968936109e-05
aF3.1242946654739573e-05
aF2.7441523652551507e-05
aF2.3590863471261895e-05
aF1.9830637711823921e-05
aF1.627868723405573e-05
aF1.3027868107277636e-05
aF1.0145874318880387e-05
aF7.6775062489496582e-06
aF5.6486489285083206e-06
aF4.0711567140398813e-06
aF2.9478861152848816e-06
aF2.2772374649725509e-06
aF2.056719250023984e-06
aF2.2852054207989375e-06
aF2.9636992750628364e-06
aF4.0945456009644992e-06
aF5.6791543433546212e-06
aF7.7144266660982966e-06
aF1.0188216523164171e-05
aF1.3074315650651546e-05
aF1.6327600664087955e-05
aF1.9880097077978769e-05
aF2.3638757352506578e-05
aF2.7485680557049651e-05
aF3.1281295549734948e-05
aF3.487068861420675e-05
aF3.8092813733937702e-05
aF4.0791844681192168e-05
aF4.2829500689994212e-05
aF4.4096893676827147e-05
aF4.452437851345018e-05
aF4.4088073511906708e-05
aF4.2812139213585968e-05
aF4.0766491325801871e-05
aF3.8060271744027913e-05
aF3.4831989555812027e-05
aF3.1237665185428399e-05
aF2.7438496819212236e-05
aF2.3589501980578382e-05
aF1.9830303287267176e-05
aF1.6278799758973791e-05
aF1.3027985625376694e-05
aF1.0145735364462305e-05
aF7.6770323595738349e-06
aF5.6479126551879655e-06
aF4.0703257615766545e-06
aF2.9471569194269233e-06
aF2.2767716727603007e-06
aF2.0565947308004924e-06
aF2.2853902372012095e-06
aF2.9640530568214679e-06
aF4.0948484183129781e-06
aF5.6791587971069372e-06
aF7.7139248277293711e-06
aF1.0187110011889858e-05
aF1.3072675119320457e-05
aF1.6325700954321812e-05
aF1.9878416854045844e-05
aF2.3637937302876621e-05
aF2.748644179491148e-05
aF3.128432843223654e-05
aF3.487652999539235e-05
aF3.8101735598943811e-05
aF4.0803777463792932e-05
aF4.2844009592964767e-05
aF4.4113216593854244e-05
asI110
(lp47
F4.4541421126490036e-05
aF4.4128200570131394e-05
aF4.2918725177719291e-05
aF4.0977803260595928e-05
aF3.8406768251234525e-05
aF3.5334532442574437e-05
aF3.1906799028964307e-05
aF2.8274793523266123e-05
aF2.4584822933238928e-05
aF2.0969724547039423e-05
aF1.7542889597808984e-05
aF1.439512086935025e-05
aF1.1594185032308028e-05
aF9.1866089681414365e-06
aF7.2010757509143728e-06
aF5.6527031486829687e-06
aF4.5475159331782981e-06
aF3.8865209640910435e-06
aF3.6689271493541778e-06
aF3.8941939480492122e-06
aF4.5627266345063345e-06
aF5.6751607746782224e-06
aF7.2302979177515003e-06
aF9.2218782650039074e-06
aF1.1634509627828474e-05
aF1.4439211965233299e-05
aF1.7589167785516889e-05
aF2.1016363884638272e-05
aF2.4629835900831826e-05
aF2.8316152596613027e-05
aF3.1942582712877002e-05
aF3.5363076953835421e-05
aF3.8426802417551019e-05
aF4.0988544933833485e-05
aF4.2919922935368139e-05
aF4.4120113881670259e-05
aF4.4524743545739508e-05
aF4.4111758323882629e-05
aF4.2903475333160649e-05
aF4.096452440771669e-05
aF3.8395967734155791e-05
aF3.5326402383777055e-05
aF3.1901225877759807e-05
aF2.8271415041034588e-05
aF2.4583117845591448e-05
aF2.0969115308650319e-05
aF1.7542838455687508e-05
aF1.4395203150587519e-05
aF1.1594129956372702e-05
aF9.1863055708151042e-06
aF7.2005481207194766e-06
aF5.6520640099252165e-06
aF4.5469101655030003e-06
aF3.8860709731852372e-06
aF3.6686904973568489e-06
aF3.8941408527129901e-06
aF4.5627413636615503e-06
aF5.6750670107624021e-06
aF7.2299041853548317e-06
aF9.2210358457066912e-06
aF1.1633172456941379e-05
aF1.4437486346238267e-05
aF1.7587339937590927e-05
aF2.1014895792724533e-05
aF2.4629324747839393e-05
aF2.8317255752026697e-05
aF3.1945917731358159e-05
aF3.5369112698136e-05
aF3.8435761499804044e-05
aF4.1000337741100062e-05
aF4.2934128977507689e-05
aF4.4136017639136841e-05
asI115
(lp48
F4.4541287910615039e-05
aF4.4156863041196433e-05
aF4.3031024117615411e-05
aF4.1222276159371405e-05
aF3.8822295413295126e-05
aF3.594810401009996e-05
aF3.273259421388623e-05
aF2.9314569026676243e-05
aF2.5829429951636088e-05
aF2.2401442084177657e-05
aF1.9138192926919979e-05
aF1.6127500511370376e-05
aF1.3436683406586636e-05
aF1.111383043270984e-05
aF9.1905297355007671e-06
aF7.6854404349537905e-06
aF6.6081016028691363e-06
aF5.9624480465085864e-06
aF5.7496129759693777e-06
aF5.9697214045046342e-06
aF6.6225011089786431e-06
aF7.7066556389433902e-06
aF9.2180587400127967e-06
aF1.1146946765083261e-05
aF1.3474407689126702e-05
aF1.6168587679987446e-05
aF1.9181144905625308e-05
aF2.2444552872016415e-05
aF2.5870865148248283e-05
aF2.9352475526952812e-05
aF3.2765229244511397e-05
aF3.5973967292784895e-05
aF3.8840245459576839e-05
aF4.1231612564294535e-05
aF4.3031522480301477e-05
aF4.4148757078590613e-05
aF4.4525202827946399e-05
aF4.4140974643376186e-05
aF4.3016202266361222e-05
aF4.1209236454516494e-05
aF3.8811517626294317e-05
aF3.5939791733590868e-05
aF3.2726680040630522e-05
aF2.9310760553221407e-05
aF2.58272845615872e-05
aF2.2400454275705735e-05
aF1.9137877477277816e-05
aF1.6127457652128935e-05
aF1.3436637348051177e-05
aF1.11136386332587e-05
aF9.1901659406961732e-06
aF7.6849587500809651e-06
aF6.6075912316573782e-06
aF5.961988797695601e-06
aF5.7492404894575077e-06
aF5.9694087065387257e-06
aF6.6221600096482572e-06
aF7.7061580222617768e-06
aF9.217274308220654e-06
aF1.1145790629758116e-05
aF1.347288875043132e-05
aF1.6166847459850969e-05
aF1.9179476853521246e-05
aF2.2443394454849252e-05
aF2.5870759266787668e-05
aF2.9354003510666622e-05
aF3.2768923906568013e-05
aF3.5980219940761985e-05
aF3.8849223927689332e-05
aF4.124320713974703e-05
aF4.3045332617946761e-05
aF4.4164124553816519e-05
asI120
(lp49
F4.4541119320705083e-05
aF4.4190062093679152e-05
aF4.3161258780435654e-05
aF4.150624324751245e-05
aF3.9305978256588979e-05
aF3.6664229609240217e-05
aF3.3699502252537971e-05
aF3.0536501298504478e-05
aF2.7298060352661357e-05
aF2.4098324661463361e-05
aF2.1037726836864155e-05
aF1.8200000032011667e-05
aF1.5651189253586309e-05
aF1.344038753294269e-05
aF1.1601764829799529e-05
aF1.0157380623923983e-05
aF9.1202678113469845e-06
aF8.4973279350687758e-06
aF8.2916651554099814e-06
aF8.5040905084538965e-06
aF9.1336367225025177e-06
aF1.0177031760657715e-05
aF1.1627186104994034e-05
aF1.3470856280233539e-05
aF1.5685754998328653e-05
aF1.8237481204106945e-05
aF2.1076729108944538e-05
aF2.4137286009643814e-05
aF2.7335323816731352e-05
aF3.057041131183923e-05
aF3.3728515228552645e-05
aF3.6687025341941283e-05
aF3.932155671655837e-05
aF4.1513992287555699e-05
aF4.3160982247269984e-05
aF4.4181964263542422e-05
aF4.4525749152400499e-05
aF4.4174846305110058e-05
aF4.3146969218859775e-05
aF4.1493523115207873e-05
aF3.9295272650531847e-05
aF3.6655749454750491e-05
aF3.3693225439527198e-05
aF3.0532207646003228e-05
aF2.7295391082055349e-05
aF2.4096853526992774e-05
aF2.1037029438061318e-05
aF1.8199709892435061e-05
aF1.5651033209006972e-05
aF1.34401977649606e-05
aF1.1601469460314928e-05
aF1.0156978351484061e-05
aF9.1197941803645079e-06
aF8.4968213935626159e-06
aF8.2911402495729592e-06
aF8.5035237003776208e-06
aF9.1329677608542992e-06
aF1.0176180630030804e-05
aF1.1626082654984138e-05
aF1.3469477020357753e-05
aF1.5684159596863914e-05
aF1.8235840324487231e-05
aF2.1075335695752409e-05
aF2.4136544195005428e-05
aF2.733571318940613e-05
aF3.0572428948012409e-05
aF3.3732602826246306e-05
aF3.6693492968173182e-05
aF3.933051697277453e-05
aF4.1525318298806318e-05
aF4.3174299515139013e-05
aF4.419668054845534e-05
asI125
(lp50
F4.4540912338341041e-05
aF4.4226784283881918e-05
aF4.3305524019888035e-05
aF4.182136754961858e-05
aF3.9844020935992896e-05
aF3.7463239715125791e-05
aF3.4782192755390303e-05
aF3.1910373733095589e-05
aF2.8956815461997412e-05
aF2.6024249491077388e-05
aF2.3204664186911569e-05
aF2.057648735687436e-05
aF1.8203393798761417e-05
aF1.6134546689929913e-05
aF1.4405945411749807e-05
aF1.3042478927749574e-05
aF1.2060269287840109e-05
aF1.1468922554463215e-05
aF1.127336964612909e-05
aF1.1475063445160642e-05
aF1.2072390814806724e-05
aF1.3060253125871282e-05
aF1.442886417966274e-05
aF1.616190900829538e-05
aF1.8234298619891207e-05
aF2.0609838581889149e-05
aF2.3239193287307532e-05
aF2.6058559168786811e-05
aF2.8989444460612926e-05
aF3.193987897647153e-05
aF3.4807241110935017e-05
aF3.7482698704224413e-05
aF3.9857036433977019e-05
aF4.182741744693322e-05
aF4.3304440006875185e-05
aF4.4218738881987505e-05
aF4.4526374060662097e-05
aF4.4212356865187354e-05
aF4.3291874876614665e-05
aF4.1809060829860347e-05
aF3.9833460360290426e-05
aF3.7454637294510815e-05
aF3.4775566626850954e-05
aF3.1905572904356829e-05
aF2.895356466175736e-05
aF2.6022204470083689e-05
aF2.3203467119411973e-05
aF2.0575813337842407e-05
aF1.8202982283699787e-05
aF1.6134215312867604e-05
aF1.4405587156256563e-05
aF1.30420464820666e-05
aF1.2059752203846212e-05
aF1.1468323426982966e-05
aF1.1272685020485709e-05
aF1.1474273766407663e-05
aF1.2071461732191283e-05
aF1.3059148156146922e-05
aF1.4427566407418452e-05
aF1.6160447457917352e-05
aF1.8232773475993386e-05
aF2.0608438857045115e-05
aF2.323820107443402e-05
aF2.6058336375369901e-05
aF2.8990400794894613e-05
aF3.1942423566450136e-05
aF3.4811723851637419e-05
aF3.7489350447579803e-05
aF3.9865918666715648e-05
aF4.1838391577353437e-05
aF4.3317163654312086e-05
aF4.4232692015077667e-05
assS'field'
p51
g1
(cfield._field
Field
p52
g3
NtRp53
(dp54
S'HField'
p55
g1
(crwg.vector
Vector
p56
c__builtin__
list
p57
(lp58
c__builtin__
complex
p59
(F-0.00038877125536368061
F0.00030000507759747543
tRp60
ag59
(F6.4340983391551645e-08
F-2.9116547035046259e-10
tRp61
ag59
(F-6.8369844676159071e-08
F7.9130091121525465e-08
tRp62
atRp63
sS'PVector'
p64
g1
(g56
g57
(lp65
F9.2929812389528018e-09
aF-3.0541583666600288e-10
aF-4.4535418343269226e-05
atRp66
sS'observation'
p67
g1
(g56
g57
(lp68
F6.0999332417281009e-16
aF-5.3367500691614951e-17
aF-5
atRp69
sS'K'
F1.5718837664619516
sS'dplctr'
p70
(lp71
g1
(g56
g57
(lp72
F0
aF-0.29999999999999993
aF0
atRp73
ag1
(g56
g57
(lp74
F0
aF-0.39999999999999997
aF0
atRp75
ag1
(g56
g57
(lp76
F0.0083333333333333332
aF-0.19999999999999996
aF0
atRp77
ag1
(g56
g57
(lp78
F0
aF0.29999999999999993
aF0
atRp79
ag1
(g56
g57
(lp80
F0
aF0.19999999999999996
aF0
atRp81
ag1
(g56
g57
(lp82
F0.0083333333333333332
aF0.39999999999999991
aF0
atRp83
ag1
(g56
g57
(lp84
F0
aF-0.89999999999999991
aF0
atRp85
ag1
(g56
g57
(lp86
F0
aF-0.80000000000000004
aF0
atRp87
ag1
(g56
g57
(lp88
F0
aF-0.099999999999999978
aF0
atRp89
ag1
(g56
g57
(lp90
F-0.0083333333333333332
aF0
aF0
atRp91
ag1
(g56
g57
(lp92
F0
aF0.099999999999999978
aF0
atRp93
ag1
(g56
g57
(lp94
F0
aF0.5
aF0
atRp95
ag1
(g56
g57
(lp96
F0
aF0.59999999999999998
aF0
atRp97
ag1
(g56
g57
(lp98
F0
aF-0.5
aF0
atRp99
ag1
(g56
g57
(lp100
F-0.0083333333333333332
aF-0.59999999999999998
aF0
atRp101
ag1
(g56
g57
(lp102
F0
aF-0.69999999999999996
aF0
atRp103
ag1
(g56
g57
(lp104
F0
aF0.89999999999999991
aF0
atRp105
ag1
(g56
g57
(lp106
F-0.0083333333333333332
aF0.80000000000000004
aF0
atRp107
ag1
(g56
g57
(lp108
F0
aF0.69999999999999996
aF0
atRp109
asS'eta'
p110
F376.73031346220444
sS'dplmmt'
p111
(lp112
g1
(g56
g57
(lp113
g59
(F0.00019735269074828274
F-0.0001069584299487074
tRp114
ag59
(F0.0007894107629931315
F-0.00042783371979482983
tRp115
ag59
(F0
F0
tRp116
atRp117
ag1
(g56
g57
(lp118
g59
(F-0.00018058328896315259
F9.7643815201789184e-05
tRp119
ag59
(F0.0014446663117052205
F-0.00078115052161431336
tRp120
ag59
(F-0
F0
tRp121
atRp122
ag1
(g56
g57
(lp123
g59
(F0
F0
tRp124
ag59
(F0.0016649100600139449
F-0.00090365381520260055
tRp125
ag59
(F0
F0
tRp126
atRp127
ag1
(g56
g57
(lp128
g59
(F0.00019729939657857796
F-0.00010693104269949697
tRp129
ag59
(F0.00078919758631431161
F-0.00042772417079798777
tRp130
ag59
(F0
F0
tRp131
atRp132
ag1
(g56
g57
(lp133
g59
(F-0.00020810294482260158
F0.00011295057686590664
tRp134
ag59
(F0.0016648235585808122
F-0.00090360461492725291
tRp135
ag59
(F-0
F0
tRp136
atRp137
ag1
(g56
g57
(lp138
g59
(F0
F0
tRp139
ag59
(F0.0014449530163822286
F-0.00078133495964493108
tRp140
ag59
(F0
F0
tRp141
atRp142
ag1
(g56
g57
(lp143
g59
(F-4.7334199875592563e-05
F2.4939183594542336e-05
tRp144
ag59
(F0.0001893367995023699
F-9.9756734378169155e-05
tRp145
ag59
(F0
F0
tRp146
atRp147
ag1
(g56
g57
(lp148
g59
(F7.918973764558363e-05
F-4.210564742359512e-05
tRp149
ag59
(F0.00063351790116466893
F-0.0003368451793887609
tRp150
ag59
(F0
F0
tRp151
atRp152
ag1
(g56
g57
(lp153
g59
(F-0.00021600379243759291
F0.00011735982717812824
tRp154
ag59
(F0.00086401516975037141
F-0.0004694393087125129
tRp155
ag59
(F0
F0
tRp156
atRp157
ag1
(g56
g57
(lp158
g59
(F0
F0
tRp159
ag59
(F0.0017400389452256271
F-0.00094557466865750916
tRp160
ag59
(F0
F0
tRp161
atRp162
ag1
(g56
g57
(lp163
g59
(F0.00021601420291004824
F-0.0001173651578886419
tRp164
ag59
(F0.00086405681164019275
F-0.00046946063155456748
tRp165
ag59
(F0
F0
tRp166
atRp167
ag1
(g56
g57
(lp168
g59
(F-0.00016139228845194481
F8.7014063357527562e-05
tRp169
ag59
(F0.00064556915380777969
F-0.00034805625343011046
tRp170
ag59
(F-0
F0
tRp171
atRp172
ag1
(g56
g57
(lp173
g59
(F0.00013692226277698877
F-7.3547848265742417e-05
tRp174
ag59
(F0.0010953781022159097
F-0.00058838278612593923
tRp175
ag59
(F0
F0
tRp176
atRp177
ag1
(g56
g57
(lp178
g59
(F0.0001612646711219284
F-8.6941248354498174e-05
tRp179
ag59
(F0.00064505868448771402
F-0.00034776499341799291
tRp180
ag59
(F0
F0
tRp181
atRp182
ag1
(g56
g57
(lp183
g59
(F-0
F0
tRp184
ag59
(F0.0010952756079804823
F-0.00058831671056113009
tRp185
ag59
(F-0
F0
tRp186
atRp187
ag1
(g56
g57
(lp188
g59
(F-0.00011041878673228378
F5.9022196999993756e-05
tRp189
ag59
(F0.00044167514692913578
F-0.00023608878799997538
tRp190
ag59
(F-0
F0
tRp191
atRp192
ag1
(g56
g57
(lp193
g59
(F4.7414559046265759e-05
F-2.4983145200933052e-05
tRp194
ag59
(F0.00018965823618506268
F-9.9932580803732018e-05
tRp195
ag59
(F-0
F0
tRp196
atRp197
ag1
(g56
g57
(lp198
g59
(F-0
F0
tRp199
ag59
(F0.00063377615815859154
F-0.00033699458324972799
tRp200
ag59
(F-0
F0
tRp201
atRp202
ag1
(g56
g57
(lp203
g59
(F-0.00011033218183624177
F5.8975145589048958e-05
tRp204
ag59
(F0.00044132872734496773
F-0.00023590058235619613
tRp205
ag59
(F-0
F0
tRp206
atRp207
asS'freq'
p208
F75
sS'EField'
p209
g1
(g56
g57
(lp210
g59
(F-2.1307299687375316e-05
F-2.3157776597979062e-06
tRp211
ag59
(F-0.14360682968410654
F0.11080021754095622
tRp212
ag59
(F7.0165982415200043e-07
F-1.1225575789659565e-06
tRp213
atRp214
sbsS'step'
p215
I5
sS'data_gain'
p216
(dp217
I0
(lp218
F2.0789997481963942
aF2.0789997481963942
aF2.0789997481963942
aF2.0789997481963942
aF2.0789997481963942
aF2.0789997481963942
aF2.0789997481963942
aF2.0789997481963942
aF2.0789997481963942
aF2.0789997481963942
aF2.0789997481963942
aF2.0789997481963942
aF2.0789997481963942
aF2.0789997481963942
aF2.0789997481963942
aF2.0789997481963942
aF2.0789997481963942
aF2.0789997481963942
aF2.0789997481963942
aF2.0789997481963942
aF2.0789997481963942
aF2.0789997481963942
aF2.0789997481963942
aF2.0789997481963942
aF2.0789997481963942
aF2.0789997481963942
aF2.0789997481963942
aF2.0789997481963942
aF2.0789997481963942
aF2.0789997481963942
aF2.0789997481963942
aF2.0789997481963942
aF2.0789997481963942
aF2.0789997481963942
aF2.0789997481963942
aF2.0789997481963942
aF2.0789997481963942
aF2.0789997481963942
aF2.0789997481963942
aF2.0789997481963942
aF2.0789997481963942
aF2.0789997481963942
aF2.0789997481963942
aF2.0789997481963942
aF2.0789997481963942
aF2.0789997481963942
aF2.0789997481963942
aF2.0789997481963942
aF2.0789997481963942
aF2.0789997481963942
aF2.0789997481963942
aF2.0789997481963942
aF2.0789997481963942
aF2.0789997481963942
aF2.0789997481963942
aF2.0789997481963942
aF2.0789997481963942
aF2.0789997481963942
aF2.0789997481963942
aF2.0789997481963942
aF2.0789997481963942
aF2.0789997481963942
aF2.0789997481963942
aF2.0789997481963942
aF2.0789997481963942
aF2.0789997481963942
aF2.0789997481963942
aF2.0789997481963942
aF2.0789997481963942
aF2.0789997481963942
aF2.0789997481963942
aF2.0789997481963942
asI130
(lp219
F2.079511235455672
aF2.0526380643046536
aF1.9727892161415719
aF1.8407762328096364
aF1.6579946463548927
aF1.4264913371265773
aF1.1490685701367633
aF0.82943449620414755
aF0.47241168488032392
aF0.08421425142682748
aF-0.32720331031284233
aF-0.75174261280502686
aF-1.1767616751389207
aF-1.586807857416743
aF-1.9637066179379117
aF-2.2873093690199333
aF-2.5371780417870378
aF-2.6952325196049509
aF-2.7488829848634748
aF-2.6936466225356988
aF-2.5341646316527222
aF-2.2831486271623529
aF-1.9587437613664007
aF-1.5813974171160972
aF-1.1712269646585216
aF-0.74635393034321162
aF-0.32217129362113017
aF0.08873588422004175
aF0.47631891790620656
aF0.83266446166356389
aF1.1515912642429824
aF1.428302228285079
aF1.6591082832557782
aF1.8412207482960046
aF1.9726015744450656
aF2.051859926940399
aF2.078185378099612
aF2.0513107065428562
aF1.9715001689380087
aF1.8395619044921845
aF1.656885878009754
aF1.4255115620638124
aF1.1482324275591316
aF0.82874702553950141
aF0.47186821597007683
aF0.083801080803231606
aF-0.32750741411410245
aF-0.75196411267372998
aF-1.1769293405600165
aF-1.5869495460813245
aF-1.9638462888529686
aF-2.2874649735782651
aF-2.5373608363450986
aF-2.6954478779775477
aF-2.7491320533954102
aF-2.6939276248413604
aF-2.5344728561767154
aF-2.2834751088316789
aF-1.9590736384325416
aF-1.5817091541844139
aF-1.1714930876559313
aF-0.74654318408752574
aF-0.32225167279604899
aF0.088793878546279958
aF0.47653932095308538
aF0.83306352101659575
aF1.1521759120964967
aF1.4290693874828717
aF1.6600449639129056
aF1.8423048442635437
aF1.9738032437083817
aF2.0531434286719601
asI5
(lp220
F2.079073209730026
aF2.078726917262121
aF2.0777027373683841
aF2.0760315404916296
aF2.0737637067153498
aF2.0709676423561838
aF2.0677277597164854
aF2.0641419744542628
aF2.0603187891929
aF2.0563740449502013
aF2.0524274332864341
aF2.0485988712756855
aF2.0450048479927267
aF2.0417548546932944
aF2.0389480108279323
aF2.0366699941599138
aF2.0349903754113026
aF2.0339604460939014
aF2.0336116127756125
aF2.033954412499027
aF2.0349781831302796
aF2.0366513999644291
aF2.0389226669508549
aF2.0417223284683281
aF2.044964646674849
aF2.0485504709715037
aF2.0523703107708804
aF2.056307711056268
aF2.0602428224348337
aF2.0640560535787382
aF2.0676316939632584
aF2.0708613983404147
aF2.0736474310066861
aF2.0759055771488679
aF2.0775676398821359
aF2.0785834545515263
aF2.0789223660259055
aF2.0785741297092186
aF2.0775492125309594
aF2.0758784860154695
aF2.0736123194633578
aF2.0708190971169609
aF2.0675831987206235
aF2.0640024978832474
aF2.0601854468072531
aF2.0562478289004602
aF2.0523092721071183
aF2.0484896250026345
aF2.0449053042920817
aF2.0416657258493314
aF2.0388699314093945
aF2.036603519172218
aF2.0349359787455579
aF2.0339185191024214
aF2.0335824628361023
aF2.0339382614733101
aF2.0349751656749211
aF2.0366615617061781
aF2.0389459625952364
aF2.0417586199609907
aF2.0450137015783776
aF2.0486119612522153
aF2.0524438122080606
aF2.056392703488688
aF2.0603386910459491
aF2.0641620913930052
aF2.0677471056833721
aF2.0709853056014809
aF2.0737788790617797
aF2.0760435429351003
aF2.0777110413512974
aF2.0787311610890526
asI135
(lp221
F2.0794826355639402
aF2.0565926155724714
aF1.9886473689430548
aF1.8765468500771629
aF1.7218273362030689
aF1.5267176241473224
aF1.2942214670673591
aF1.0282289002446925
aF0.73365745356568879
aF0.41661959592390524
aF0.084603160666315208
aF-0.25336525039063051
aF-0.58662904107316916
aF-0.90296874569819185
aF-1.1889397279082545
aF-1.4305908269266561
aF-1.6146132881288611
aF-1.7298300701060334
aF-1.7687472133074089
aF-1.7287483254491265
aF-1.6125405035032079
aF-1.4276921718514759
aF-1.1854280253294278
aF-0.89907523436470704
aF-0.58257849064399747
aF-0.24935880277590317
aF0.088397244274287357
aF0.42006892852806982
aF0.73666438872531037
aF1.0307271057017784
aF1.2961714838804075
aF1.5281021755696653
aF1.7226467838091111
aF1.8768149746923835
aF1.9883875433271441
aF2.0558343949796591
aF2.078258791485295
aF2.0553652300263883
aF1.9874491495865678
aF1.8754078425839906
aF1.7207732270791087
aF1.525768312144923
aF1.2933900046086442
aF1.0275208966846376
aF0.73307101485698956
aF0.41614584654959713
aF0.084227349528456563
aF-0.25366212112837638
aF-0.58686820546310459
aF-0.90317151090622172
aF-1.1891254576687305
aF-1.4307753805889503
aF-1.6148081290072844
aF-1.730042047469629
aF-1.7689787723144612
aF-1.7289977592051819
aF-1.6128019561487767
aF-1.4279553959072824
aF-1.1856781889751702
aF-0.89929316502306711
aF-0.58274159790691715
aF-0.2494426727713604
aF0.088416799575508284
aF0.42021367771828122
aF0.73695164301515181
aF1.0311680661275675
aF1.2967701151553324
aF1.5288546676453367
aF1.7235415993398349
aF1.8778334362245164
aF1.9895048851862382
aF2.0570211874850655
asI10
(lp222
F2.0791422363398273
aF2.0777655047538581
aF2.0736976322751652
aF2.0670581549035942
aF2.058042546466214
aF2.0469170126496721
aF2.0340113098162256
aF2.019709703203862
aF2.0044402257363618
aF1.9886624528989874
aF1.9728540696683763
aF1.9574965694390172
aF1.9430604878079181
aF1.9299906301640375
aF1.9186917946257052
aF1.9095155142157503
aF1.9027483383300066
aF1.8986021394456332
aF1.8972068652660674
aF1.8986060610618238
aF1.9027553672287203
aF1.9095240614388973
aF1.9186995736422183
aF1.9299947667417872
aF1.9430576564265918
aF1.9574831487376454
aF1.9728263087948781
aF1.9886166406050929
aF2.0043728545799206
aF2.019617622175844
aF2.0338918599668223
aF2.0467681417029175
aF2.0578628998491748
aF2.0668471419579317
aF2.0734554675775021
aF2.0774932253898233
aF2.0788416966291328
aF2.0774612297114476
aF2.0733922837061618
aF2.066754366953127
aF2.0577428844236061
aF2.0466239361606697
aF2.0337271419607541
aF2.019436606507349
aF2.0041801857279267
aF1.9884172693404867
aF1.9726253550878259
aF1.9572857541436997
aF1.9428688301580763
aF1.9298192305841557
aF1.9185416116374592
aF1.9093873807072752
aF1.9026429763338211
aF1.8985201718773141
aF1.897148823364287
aF1.8985723866467956
aF1.9027464093346222
aF1.9095400673460792
aF1.9187406748051263
aF1.9300609605463956
aF1.9431487850867921
aF1.9575988769271404
aF1.9729661017891387
aF1.9887797447634872
aF2.0045582819261347
aF2.0198241406387267
aF2.0341179905366373
aF2.0470121633598755
aF2.0581228626590913
aF2.0671208882354115
aF2.0737406605235931
aF2.0777873841522672
asI140
(lp223
F2.0794493789721744
aF2.0605402292268917
aF2.0044674168571732
aF1.9121446714367776
aF1.7851197501291702
aF1.6256123482092197
aF1.4365665562197263
aF1.2217160425673703
aF0.98565752399695994
aF0.73392357717799706
aF0.47303893933392815
aF0.2105351291272976
aF-0.045112293863750749
aF-0.28466778026645589
aF-0.49848475166930301
aF-0.67704564839790804
aF-0.81167823689768448
aF-0.89537159430946889
aF-0.92355163264460693
aF-0.89464339126317771
aF-0.81027477403172132
aF-0.67506533654941991
aF-0.49605855530463094
aF-0.28194402890708492
aF-0.042242274466807075
aF0.21340873611423533
aF0.47578995273394759
aF0.73644668511405476
aF0.98786981079792868
aF1.2235564982360159
aF1.4379943096526382
aF1.6266041914162723
aF1.7856673453735052
aF1.9122516953879067
aF2.0041468034624934
aF2.0598116195977649
aF2.0783368615051048
aF2.0594225321264368
aF2.0033705995223579
aF1.9110928058487029
aF1.784133644361021
aF1.6247084794287272
aF1.435756287751687
aF1.2210051880297004
aF0.98504630391872006
aF0.73340698833919671
aF0.47260752344597123
aF0.21017608615319441
aF-0.045413747645268301
aF-0.28492695008406493
aF-0.49871606177443267
aF-0.67726145381013725
aF-0.81188795349451182
aF-0.89558116828846346
aF-0.92376328607830183
aF-0.89485553832785625
aF-0.81048202918870327
aF-0.67525861561944711
aF-0.49622534959566322
aF-0.28206895822387346
aF-0.04230798169044505
aF0.21342037103830902
aF0.47589638470588658
aF0.73666321721076289
aF0.98820821355624244
aF1.224023876024704
aF1.4385923143541497
aF1.627328638278468
aF1.7865082444107157
aF1.9131936779437855
aF2.0051698982682007
aF2.0608923149974441
asI15
(lp224
F2.0792064354094681
aF2.0761461154537861
aF2.0671034582178125
aF2.0523330259508814
aF2.0322525032023511
aF2.0074335130510645
aF1.9785886402233865
aF1.9465545905701223
aF1.9122714695596392
aF1.8767582663681013
aF1.8410847895073017
aF1.8063405131120964
aF1.7736010498263066
aF1.7438932463177736
aF1.7181601701933082
aF1.6972274837942567
aF1.6817728392336386
aF1.6722999424895555
aF1.6691187974574375
aF1.6723333488140231
aF1.6818373149627865
aF1.6973184822815937
aF1.7182711794007068
aF1.7440161314381941
aF1.7737264688033929
aF1.8064583760156232
aF1.8411847321078261
aF1.8768301103827911
aF1.9123056462999068
aF1.9465425103266556
aF1.9785229958749735
aF2.0073085123796801
aF2.0320640297065919
aF2.0520787322302119
aF2.0667827990821301
aF2.0757603297672662
aF2.0787584863740234
aF2.0756929338030732
aF2.0666496388835713
aF2.0518830500456202
aF2.0318106338559043
aF2.007003705763684
aF1.9781744723298746
aF1.9461592131283576
aF1.9118975834734191
aF1.8764081229288858
aF1.8407602139046171
aF1.8060429479349291
aF1.7733316142688624
aF1.743652805808388
aF1.7179494105557205
aF1.6970469838650248
aF1.6816231361026179
aF1.6721815841738585
aF1.6690323788077155
aF1.6722795277107214
aF1.6818168073033171
aF1.6973320357957018
aF1.7183195278678141
aF1.7440999323236803
aF1.7738462285893357
aF1.8066143684891964
aF1.8413769155124413
aF1.8770580495776725
aF1.9125684458845025
aF1.946838764071914
aF1.9788507568028233
aF2.0076652865164997
aF2.0324467950017491
aF2.0524839824887402
aF2.0672066111283356
aF2.0761984505459901
asI145
(lp225
F2.0794112085929992
aF2.0643597642370426
aF2.0197689975217084
aF1.9464960784573444
aF1.8459818431747079
aF1.7202692453722579
aF1.5720264818352216
aF1.4045713421983639
aF1.2218912097938537
aF1.0286502821908063
aF0.83017212381719041
aF0.63238215405497245
aF0.44169227835776548
aF0.26481047435137328
aF0.10846409985004701
aF-0.020961088813312573
aF-0.11784383711383026
aF-0.17776611071793169
aF-0.19790237772206939
aF-0.17728928184950238
aF-0.11692116283913057
aF-0.019651028697551077
aF0.1100818767834498
aF0.26664288368258399
aF0.44364081776920261
aF0.63435002866068668
aF0.83206984776616699
aF1.0303995312624303
aF1.2234270183315079
aF1.4058429168539521
aF1.5729969660052507
aF1.7209147543088377
aF1.8462900404233695
aF1.9464645070920987
aF2.0194033294016256
aF2.0636720925997083
aF2.0784184836160531
aF2.0633607212912763
aF2.0187837118370715
aF1.9455432239290302
aF1.8450777788431845
aF1.719427254586293
aF1.571256215741488
aF1.4038785086164971
aF1.2212775339532771
aF1.0281137470357751
aF0.82970747508451792
aF0.63198163062780921
aF0.44134650447922896
aF0.26450943159402313
aF0.10819808847156097
aF-0.021200583208514763
aF-0.11806343438624936
aF-0.1779700163102049
aF-0.19809205404642441
aF-0.17746329573656613
aF-0.1170751949413787
aF-0.019778045098577383
aF0.10999127625324116
aF0.26659992509111569
aF0.44365782283425664
aF0.6344395268487647
aF0.83224359403370207
aF1.0306675140394526
aF1.2237965485787785
aF1.406317880670249
aF1.5735773044707335
aF1.7215962102221014
aF1.8470641867810613
aF1.9473190495621142
aF2.0203226561983394
aF2.0646380305466736
asI20
(lp226
F2.0792655349437181
aF2.0739191830263843
aF2.0581156789242545
aF2.0322733203131693
aF1.997081614182574
aF1.9534905343929179
aF1.9026946520331016
aF1.8461114015831717
aF1.7853526782897025
aF1.7221890205309891
aF1.6585058554632588
aF1.5962517107911123
aF1.5373789349540665
aF1.4837783027049765
aF1.4372098446691264
aF1.39923320465609
aF1.3711416272188079
aF1.3539041212007561
aF1.348120269867723
aF1.3539914795807171
aF1.3713112099306475
aF1.3994750707231161
aF1.4375098669444646
aF1.4841190208322408
aF1.5377405608202974
aF1.5966132000716051
aF1.6588459632280341
aF1.7224872718863651
aF1.7855902032435838
aF1.8462716032718696
aF1.9027636962901044
aF1.9534576645044859
aF1.9969393066623469
aF2.0320173055088602
aF2.0577448545995947
aF2.0734354503186911
aF2.078673584887949
aF2.073320918758458
aF2.0575182980056486
aF2.0316837395976379
aF1.9965062553267252
aF1.9529351427512023
aF1.902164159418593
aF1.845609840467852
aF1.7848831515543175
aF1.7217537270729446
aF1.6581061680964502
aF1.5958882992226164
aF1.5370519235018896
aF1.4834874500992214
aF1.4369547319522469
aF1.3990134169559689
aF1.3709569159781889
aF1.3537545351663449
aF1.3480062455606578
aF1.353913884858047
aF1.3712713374050314
aF1.3994745810834395
aF1.4375506854969027
aF1.4842031937425659
aF1.5378700804312455
aF1.5967898110919829
aF1.659070963312943
aF1.7227613209374231
aF1.7859131555120555
aF1.8466423750132699
aF1.9031801793859686
aF1.9539166933329934
aF1.9974366818362277
aF2.0325478742105578
aF2.0583026434293701
aF2.0740138430977635
asI150
(lp227
F2.0793679202084627
aF2.0679340603689145
aF2.0340901861148701
aF1.978578955400194
aF1.9026396677813326
aF1.8080107673895487
aF1.6969305014414053
aF1.5721326448699913
aF1.4368330007460719
aF1.2947011245731117
aF1.1498106243833721
aF1.0065608548228191
aF0.8695634185177471
aF0.74348925969799762
aF0.63287679230745419
aF0.54190846582899954
aF0.4741715823819419
aF0.43242713109435427
aF0.41841524391643925
aF0.43272510499343392
aF0.47474967110841859
aF0.54273259694801168
aF0.63389969630757803
aF0.74465438284104724
aF0.87080918042895805
aF1.0078247419021971
aF1.1510327369846136
aF1.2958269557718141
aF1.4378153735402059
aF1.5729328472589112
aF1.6975187280926418
aF1.8083660082409891
aF1.9027491890945036
aF1.9784375087406003
aF2.0336990641516572
aF2.067300100655022
aF2.0785025417857708
aF2.067061787224667
aF2.033225918596381
aF1.9777366753090384
aF1.9018318235454119
aF1.8072477620195524
aF1.6962203167005365
aF1.5714806269979995
aF1.4362418226827729
aF1.29417092722691
aF1.1493393257650006
aF1.0061446019680473
aF0.86919714468145259
aF0.74316730022517641
aF0.63259350863107233
aF0.54165882917922004
aF0.47395167658143195
aF0.43223454519887905
aF0.4182493372809149
aF0.43258713662981596
aF0.47464279063964598
aF0.54266169712252854
aF0.63387112972685622
aF0.74467555106256933
aF0.870888012984115
aF1.0079690946709381
aF1.1512497508074542
aF1.2961224239905089
aF1.4381931692838215
aF1.5733944573035463
aF1.6980629309973425
aF1.8089887219631557
aF1.9034434993314004
aF1.9791938754636149
aF2.0345056913569466
aF2.0681434439318691
asI25
(lp228
F2.0793193790532429
aF2.0711534764438246
aF2.047001000329185
aF2.0074508120102719
aF1.9534791068199198
aF1.8864420710084395
aF1.8080636800775365
aF1.7204167529706471
aF1.6258949179895665
aF1.5271728394566213
aF1.4271520266833115
aF1.3288899595472945
aF1.2355112824463601
aF1.1501015534529044
aF1.0755864716959822
aF1.0146024180046371
aF0.96936705501710407
aF0.9415609578648132
aF0.93223204792279124
aF0.94173344043299978
aF0.96970210355748443
aF1.015080953789901
aF1.0761816639287209
aF1.1507807084651362
aF1.2362379936779428
aF1.3296262974707731
aF1.4278605784157534
aF1.5278184588366961
aF1.6264461046090104
aF1.7208466319388962
aF1.8083505965771838
aF1.8865698427591424
aF1.9534369943332239
aF2.0072332735226848
aF2.0466072984457777
aF2.0705871993060665
aF2.0785879320234084
aF2.070415142006556
aF2.0462663866763693
aF2.0067299817113144
aF1.9527811942637801
aF1.8857749625021332
aF1.8074337764716975
aF1.7198288294046966
aF1.625352088876977
aF1.5266766295018066
aF1.4267025410271086
aF1.3284861387193303
aF1.2351512213998261
aF1.1497828593017154
aF1.0753066324336462
aF1.0143591546993409
aF0.96915863255666046
aF0.94138643366454944
aF0.93209144327377302
aF0.94162782458075145
aF0.96963358571968916
aF1.0150525831425685
aF1.0761972424182533
aF1.1508445264406157
aF1.236354503775619
aF1.3297997474714276
aF1.4280946281530895
aF1.5281158088220428
aF1.6268081642495755
aF1.7212732528721166
aF1.8088398919658852
aF1.887118106961444
aF1.9540387299126052
aF2.0078813248407532
aF2.047293083727812
aF2.0713010265809468
asI155
(lp229
F2.0793193790532429
aF2.0711534764438237
aF2.0470010003291832
aF2.0074508120102714
aF1.953479106819918
aF1.8864420710084395
aF1.8080636800775358
aF1.7204167529706478
aF1.6258949179895654
aF1.5271728394566213
aF1.4271520266833106
aF1.3288899595472949
aF1.2355112824463601
aF1.1501015534529044
aF1.0755864716959809
aF1.0146024180046371
aF0.96936705501710341
aF0.94156095786481409
aF0.93223204792279124
aF0.94173344043299911
aF0.96970210355748443
aF1.015080953789901
aF1.0761816639287192
aF1.1507807084651354
aF1.2362379936779428
aF1.3296262974707715
aF1.4278605784157534
aF1.5278184588366952
aF1.6264461046090113
aF1.7208466319388969
aF1.8083505965771838
aF1.8865698427591402
aF1.9534369943332244
aF2.0072332735226852
aF2.046607298445779
aF2.0705871993060669
aF2.0785879320234089
aF2.070415142006556
aF2.0462663866763693
aF2.0067299817113144
aF1.9527811942637796
aF1.8857749625021332
aF1.8074337764716975
aF1.7198288294046991
aF1.6253520888769777
aF1.5266766295018073
aF1.4267025410271093
aF1.3284861387193303
aF1.2351512213998261
aF1.1497828593017154
aF1.0753066324336449
aF1.0143591546993393
aF0.96915863255665913
aF0.94138643366454855
aF0.93209144327377302
aF0.94162782458075078
aF0.96963358571968916
aF1.0150525831425685
aF1.0761972424182509
aF1.1508445264406151
aF1.236354503775619
aF1.3297997474714276
aF1.4280946281530895
aF1.5281158088220428
aF1.6268081642495755
aF1.7212732528721166
aF1.8088398919658852
aF1.8871181069614433
aF1.9540387299126059
aF2.0078813248407505
aF2.0472930837278129
aF2.0713010265809468
asI30
(lp230
F2.0793679202084627
aF2.0679340603689145
aF2.0340901861148701
aF1.978578955400194
aF1.9026396677813326
aF1.8080107673895487
aF1.6969305014414053
aF1.5721326448699913
aF1.4368330007460719
aF1.2947011245731117
aF1.1498106243833721
aF1.0065608548228191
aF0.8695634185177471
aF0.74348925969799762
aF0.63287679230745419
aF0.54190846582899954
aF0.4741715823819419
aF0.43242713109435427
aF0.41841524391643925
aF0.43272510499343392
aF0.47474967110841859
aF0.54273259694801168
aF0.63389969630757803
aF0.74465438284104724
aF0.87080918042895805
aF1.0078247419021971
aF1.1510327369846136
aF1.2958269557718141
aF1.4378153735402059
aF1.5729328472589112
aF1.6975187280926418
aF1.8083660082409891
aF1.9027491890945036
aF1.9784375087406003
aF2.0336990641516572
aF2.067300100655022
aF2.0785025417857708
aF2.067061787224667
aF2.033225918596381
aF1.9777366753090384
aF1.9018318235454119
aF1.8072477620195524
aF1.6962203167005365
aF1.5714806269979995
aF1.4362418226827729
aF1.29417092722691
aF1.1493393257650006
aF1.0061446019680473
aF0.86919714468145259
aF0.74316730022517641
aF0.63259350863107233
aF0.54165882917922004
aF0.47395167658143195
aF0.43223454519887905
aF0.4182493372809149
aF0.43258713662981596
aF0.47464279063964598
aF0.54266169712252854
aF0.63387112972685622
aF0.74467555106256933
aF0.870888012984115
aF1.0079690946709381
aF1.1512497508074542
aF1.2961224239905089
aF1.4381931692838215
aF1.5733944573035463
aF1.6980629309973425
aF1.8089887219631557
aF1.9034434993314004
aF1.9791938754636149
aF2.0345056913569466
aF2.0681434439318691
asI160
(lp231
F2.0792655349437181
aF2.0739191830263852
aF2.0581156789242554
aF2.0322733203131667
aF1.997081614182574
aF1.9534905343929196
aF1.9026946520331012
aF1.8461114015831728
aF1.7853526782897033
aF1.7221890205309898
aF1.6585058554632588
aF1.5962517107911127
aF1.5373789349540665
aF1.4837783027049771
aF1.4372098446691255
aF1.39923320465609
aF1.3711416272188071
aF1.3539041212007539
aF1.3481202698677204
aF1.3539914795807164
aF1.3713112099306468
aF1.3994750707231149
aF1.4375098669444641
aF1.4841190208322415
aF1.5377405608202988
aF1.596613200071608
aF1.6588459632280341
aF1.7224872718863669
aF1.7855902032435857
aF1.8462716032718687
aF1.9027636962901027
aF1.9534576645044852
aF1.9969393066623482
aF2.0320173055088593
aF2.0577448545995951
aF2.0734354503186907
aF2.0786735848879512
aF2.0733209187584589
aF2.0575182980056477
aF2.0316837395976379
aF1.9965062553267257
aF1.9529351427512023
aF1.9021641594185938
aF1.845609840467852
aF1.7848831515543182
aF1.7217537270729435
aF1.6581061680964502
aF1.5958882992226142
aF1.5370519235018887
aF1.4834874500992221
aF1.4369547319522469
aF1.3990134169559711
aF1.3709569159781885
aF1.3537545351663449
aF1.3480062455606545
aF1.353913884858047
aF1.3712713374050278
aF1.3994745810834395
aF1.4375506854969033
aF1.4842031937425659
aF1.5378700804312451
aF1.596789811091982
aF1.659070963312943
aF1.7227613209374246
aF1.7859131555120542
aF1.8466423750132703
aF1.9031801793859668
aF1.953916693332995
aF1.9974366818362277
aF2.0325478742105583
aF2.0583026434293701
aF2.0740138430977639
asI35
(lp232
F2.0794112085930005
aF2.0643597642370426
aF2.0197689975217084
aF1.9464960784573457
aF1.8459818431747097
aF1.7202692453722579
aF1.5720264818352225
aF1.4045713421983639
aF1.2218912097938537
aF1.0286502821908086
aF0.83017212381718974
aF0.63238215405497078
aF0.44169227835776459
aF0.26481047435137328
aF0.10846409985004796
aF-0.020961088813312573
aF-0.11784383711383226
aF-0.17776611071793266
aF-0.19790237772207039
aF-0.17728928184950488
aF-0.11692116283913304
aF-0.019651028697553016
aF0.1100818767834498
aF0.26664288368258487
aF0.44364081776920167
aF0.63435002866068824
aF0.8320698477661661
aF1.0303995312624312
aF1.2234270183315072
aF1.4058429168539539
aF1.5729969660052507
aF1.7209147543088368
aF1.8462900404233706
aF1.9464645070920987
aF2.0194033294016274
aF2.0636720925997087
aF2.0784184836160549
aF2.0633607212912755
aF2.0187837118370733
aF1.9455432239290313
aF1.8450777788431845
aF1.7194272545862934
aF1.5712562157414869
aF1.4038785086164975
aF1.2212775339532771
aF1.0281137470357766
aF0.82970747508451881
aF0.63198163062780832
aF0.44134650447923074
aF0.26450943159402313
aF0.10819808847156097
aF-0.021200583208515728
aF-0.11806343438624936
aF-0.1779700163102059
aF-0.19809205404642488
aF-0.17746329573656766
aF-0.11707519494137772
aF-0.019778045098578348
aF0.10999127625324208
aF0.2665999250911148
aF0.44365782283425492
aF0.6344395268487647
aF0.83224359403370363
aF1.0306675140394519
aF1.2237965485787794
aF1.4063178806702468
aF1.5735773044707335
aF1.7215962102221019
aF1.8470641867810613
aF1.9473190495621142
aF2.0203226561983394
aF2.0646380305466727
asI165
(lp233
F2.079206435409469
aF2.076146115453787
aF2.0671034582178147
aF2.0523330259508836
aF2.0322525032023506
aF2.0074335130510663
aF1.9785886402233865
aF1.9465545905701263
aF1.912271469559641
aF1.8767582663681013
aF1.8410847895073033
aF1.8063405131120964
aF1.7736010498263066
aF1.7438932463177741
aF1.7181601701933082
aF1.6972274837942567
aF1.6817728392336377
aF1.6722999424895555
aF1.6691187974574395
aF1.672333348814024
aF1.6818373149627865
aF1.6973184822815943
aF1.7182711794007079
aF1.7440161314381948
aF1.7737264688033929
aF1.8064583760156245
aF1.8411847321078281
aF1.8768301103827927
aF1.9123056462999086
aF1.9465425103266587
aF1.9785229958749748
aF2.0073085123796801
aF2.0320640297065933
aF2.0520787322302119
aF2.0667827990821315
aF2.0757603297672693
aF2.0787584863740252
aF2.0756929338030732
aF2.0666496388835713
aF2.0518830500456207
aF2.0318106338559043
aF2.0070037057636849
aF1.9781744723298758
aF1.9461592131283592
aF1.9118975834734209
aF1.8764081229288858
aF1.8407602139046195
aF1.8060429479349305
aF1.7733316142688624
aF1.7436528058083889
aF1.7179494105557218
aF1.6970469838650248
aF1.6816231361026159
aF1.6721815841738561
aF1.6690323788077155
aF1.6722795277107219
aF1.6818168073033166
aF1.6973320357957025
aF1.7183195278678152
aF1.7440999323236808
aF1.7738462285893357
aF1.8066143684891964
aF1.8413769155124422
aF1.8770580495776725
aF1.9125684458845043
aF1.9468387640719154
aF1.9788507568028237
aF2.0076652865165001
aF2.0324467950017491
aF2.0524839824887406
aF2.0672066111283369
aF2.0761984505459918
asI40
(lp234
F2.0794493789721749
aF2.0605402292268922
aF2.0044674168571746
aF1.9121446714367771
aF1.785119750129172
aF1.6256123482092182
aF1.436566556219725
aF1.221716042567371
aF0.98565752399695994
aF0.73392357717799783
aF0.4730389393339316
aF0.21053512912730038
aF-0.045112293863748307
aF-0.28466778026645279
aF-0.49848475166930201
aF-0.67704564839790682
aF-0.81167823689768159
aF-0.89537159430946711
aF-0.92355163264460294
aF-0.89464339126317405
aF-0.81027477403171966
aF-0.6750653365494188
aF-0.49605855530462717
aF-0.28194402890708392
aF-0.042242274466806104
aF0.21340873611423622
aF0.47578995273394931
aF0.7364466851140562
aF0.98786981079793001
aF1.2235564982360165
aF1.4379943096526391
aF1.6266041914162723
aF1.7856673453735052
aF1.9122516953879067
aF2.0041468034624934
aF2.0598116195977649
aF2.0783368615051048
aF2.0594225321264359
aF2.0033705995223592
aF1.9110928058487029
aF1.784133644361021
aF1.6247084794287272
aF1.435756287751687
aF1.2210051880297004
aF0.98504630391871917
aF0.73340698833919826
aF0.47260752344597301
aF0.21017608615319441
aF-0.045413747645265373
aF-0.28492695008406438
aF-0.49871606177442995
aF-0.67726145381013492
aF-0.81188795349450893
aF-0.89558116828845857
aF-0.92376328607830072
aF-0.89485553832785225
aF-0.81048202918869916
aF-0.675258615619443
aF-0.49622534959566056
aF-0.28206895822387146
aF-0.042307981690442621
aF0.21342037103831088
aF0.47589638470589002
aF0.73666321721076522
aF0.98820821355624178
aF1.224023876024704
aF1.4385923143541515
aF1.6273286382784689
aF1.7865082444107161
aF1.913193677943785
aF2.0051698982682016
aF2.0608923149974432
asI170
(lp235
F2.0791422363398264
aF2.0777655047538595
aF2.0736976322751643
aF2.0670581549035938
aF2.0580425464662135
aF2.0469170126496721
aF2.0340113098162247
aF2.0197097032038611
aF2.0044402257363618
aF1.9886624528989869
aF1.9728540696683761
aF1.9574965694390165
aF1.9430604878079161
aF1.9299906301640375
aF1.9186917946257056
aF1.9095155142157474
aF1.9027483383300057
aF1.8986021394456314
aF1.8972068652660665
aF1.8986060610618227
aF1.9027553672287192
aF1.9095240614388944
aF1.918699573642217
aF1.9299947667417863
aF1.9430576564265909
aF1.9574831487376447
aF1.9728263087948772
aF1.9886166406050938
aF2.004372854579918
aF2.0196176221758435
aF2.0338918599668214
aF2.0467681417029175
aF2.057862899849173
aF2.0668471419579317
aF2.0734554675775008
aF2.0774932253898233
aF2.0788416966291323
aF2.077461229711449
aF2.0733922837061605
aF2.0667543669531256
aF2.0577428844236056
aF2.0466239361606697
aF2.0337271419607519
aF2.0194366065073481
aF2.0041801857279258
aF1.988417269340486
aF1.9726253550878246
aF1.9572857541436992
aF1.9428688301580763
aF1.9298192305841544
aF1.9185416116374592
aF1.9093873807072752
aF1.9026429763338215
aF1.8985201718773124
aF1.8971488233642857
aF1.8985723866467927
aF1.9027464093346209
aF1.9095400673460785
aF1.9187406748051243
aF1.9300609605463936
aF1.9431487850867921
aF1.9575988769271411
aF1.9729661017891376
aF1.9887797447634858
aF2.0045582819261325
aF2.0198241406387254
aF2.0341179905366369
aF2.0470121633598768
aF2.0581228626590886
aF2.067120888235412
aF2.0737406605235913
aF2.0777873841522663
asI45
(lp236
F2.0794826355639402
aF2.0565926155724719
aF1.9886473689430548
aF1.8765468500771636
aF1.7218273362030689
aF1.5267176241473224
aF1.2942214670673591
aF1.0282289002446925
aF0.73365745356568879
aF0.41661959592390696
aF0.084603160666315208
aF-0.25336525039063101
aF-0.58662904107316793
aF-0.90296874569818941
aF-1.1889397279082545
aF-1.4305908269266507
aF-1.6146132881288588
aF-1.7298300701060321
aF-1.7687472133074071
aF-1.7287483254491265
aF-1.6125405035032079
aF-1.4276921718514746
aF-1.1854280253294265
aF-0.89907523436470527
aF-0.58257849064399692
aF-0.24935880277590264
aF0.088397244274287357
aF0.42006892852807071
aF0.73666438872531037
aF1.0307271057017791
aF1.2961714838804075
aF1.5281021755696653
aF1.7226467838091111
aF1.8768149746923826
aF1.9883875433271441
aF2.0558343949796578
aF2.0782587914852941
aF2.0553652300263887
aF1.9874491495865678
aF1.8754078425839906
aF1.7207732270791087
aF1.525768312144923
aF1.2933900046086455
aF1.027520896684637
aF0.73307101485699033
aF0.41614584654959808
aF0.084227349528456563
aF-0.25366212112837483
aF-0.58686820546310403
aF-0.90317151090622172
aF-1.1891254576687305
aF-1.4307753805889489
aF-1.6148081290072844
aF-1.7300420474696268
aF-1.7689787723144599
aF-1.7289977592051784
aF-1.6128019561487761
aF-1.4279553959072819
aF-1.1856781889751675
aF-0.89929316502306644
aF-0.58274159790691715
aF-0.24944267277135834
aF0.088416799575508284
aF0.42021367771828122
aF0.73695164301515181
aF1.0311680661275675
aF1.2967701151553324
aF1.5288546676453363
aF1.7235415993398362
aF1.8778334362245184
aF1.9895048851862382
aF2.0570211874850659
asI175
(lp237
F2.079073209730026
aF2.078726917262121
aF2.0777027373683841
aF2.0760315404916296
aF2.0737637067153498
aF2.0709676423561838
aF2.0677277597164854
aF2.0641419744542628
aF2.0603187891929
aF2.0563740449502013
aF2.0524274332864341
aF2.0485988712756855
aF2.0450048479927267
aF2.0417548546932944
aF2.0389480108279323
aF2.0366699941599138
aF2.0349903754113026
aF2.0339604460939014
aF2.0336116127756125
aF2.033954412499027
aF2.0349781831302796
aF2.0366513999644291
aF2.0389226669508549
aF2.0417223284683281
aF2.044964646674849
aF2.0485504709715046
aF2.0523703107708804
aF2.056307711056268
aF2.0602428224348337
aF2.0640560535787382
aF2.0676316939632584
aF2.0708613983404147
aF2.0736474310066861
aF2.0759055771488679
aF2.0775676398821359
aF2.0785834545515263
aF2.0789223660259055
aF2.0785741297092186
aF2.0775492125309594
aF2.0758784860154695
aF2.0736123194633578
aF2.0708190971169609
aF2.0675831987206235
aF2.0640024978832474
aF2.0601854468072531
aF2.0562478289004602
aF2.0523092721071183
aF2.0484896250026345
aF2.0449053042920817
aF2.0416657258493314
aF2.0388699314093945
aF2.036603519172218
aF2.0349359787455579
aF2.0339185191024218
aF2.0335824628361023
aF2.0339382614733101
aF2.0349751656749211
aF2.0366615617061781
aF2.0389459625952364
aF2.0417586199609907
aF2.0450137015783776
aF2.0486119612522153
aF2.052443812208061
aF2.056392703488688
aF2.0603386910459491
aF2.0641620913930052
aF2.0677471056833721
aF2.0709853056014809
aF2.0737788790617797
aF2.0760435429351012
aF2.0777110413512974
aF2.0787311610890526
asI50
(lp238
F2.079511235455672
aF2.0526380643046536
aF1.9727892161415719
aF1.8407762328096364
aF1.6579946463548927
aF1.4264913371265773
aF1.1490685701367633
aF0.82943449620414755
aF0.47241168488032392
aF0.08421425142682748
aF-0.32720331031284233
aF-0.75174261280502686
aF-1.1767616751389207
aF-1.586807857416743
aF-1.9637066179379117
aF-2.2873093690199333
aF-2.5371780417870378
aF-2.6952325196049509
aF-2.7488829848634748
aF-2.6936466225356988
aF-2.5341646316527222
aF-2.2831486271623529
aF-1.9587437613664007
aF-1.5813974171160972
aF-1.1712269646585216
aF-0.74635393034321162
aF-0.32217129362113017
aF0.08873588422004175
aF0.47631891790620656
aF0.83266446166356389
aF1.1515912642429824
aF1.428302228285079
aF1.6591082832557782
aF1.8412207482960046
aF1.9726015744450656
aF2.051859926940399
aF2.078185378099612
aF2.0513107065428562
aF1.9715001689380087
aF1.8395619044921845
aF1.656885878009754
aF1.4255115620638124
aF1.1482324275591316
aF0.82874702553950141
aF0.47186821597007683
aF0.083801080803231606
aF-0.32750741411410245
aF-0.75196411267372998
aF-1.1769293405600165
aF-1.5869495460813245
aF-1.9638462888529686
aF-2.2874649735782651
aF-2.5373608363450986
aF-2.6954478779775477
aF-2.7491320533954102
aF-2.6939276248413604
aF-2.5344728561767154
aF-2.2834751088316789
aF-1.9590736384325416
aF-1.5817091541844139
aF-1.1714930876559313
aF-0.74654318408752574
aF-0.32225167279604899
aF0.088793878546279958
aF0.47653932095308538
aF0.83306352101659575
aF1.1521759120964967
aF1.4290693874828717
aF1.6600449639129056
aF1.8423048442635437
aF1.9738032437083817
aF2.0531434286719601
asI180
(lp239
F2.0789997481963942
aF2.0789997481963942
aF2.0789997481963942
aF2.0789997481963942
aF2.0789997481963942
aF2.0789997481963942
aF2.0789997481963942
aF2.0789997481963942
aF2.0789997481963942
aF2.0789997481963942
aF2.0789997481963942
aF2.0789997481963942
aF2.0789997481963942
aF2.0789997481963942
aF2.0789997481963942
aF2.0789997481963942
aF2.0789997481963942
aF2.0789997481963942
aF2.0789997481963942
aF2.0789997481963942
aF2.0789997481963942
aF2.0789997481963942
aF2.0789997481963942
aF2.0789997481963942
aF2.0789997481963942
aF2.0789997481963942
aF2.0789997481963942
aF2.0789997481963942
aF2.0789997481963942
aF2.0789997481963942
aF2.0789997481963942
aF2.0789997481963942
aF2.0789997481963942
aF2.0789997481963942
aF2.0789997481963942
aF2.0789997481963942
aF2.0789997481963942
aF2.0789997481963942
aF2.0789997481963942
aF2.0789997481963942
aF2.0789997481963933
aF2.0789997481963933
aF2.0789997481963933
aF2.0789997481963933
aF2.0789997481963933
aF2.0789997481963933
aF2.0789997481963933
aF2.0789997481963933
aF2.0789997481963933
aF2.0789997481963933
aF2.0789997481963933
aF2.0789997481963933
aF2.0789997481963933
aF2.0789997481963933
aF2.0789997481963933
aF2.0789997481963933
aF2.0789997481963933
aF2.0789997481963933
aF2.0789997481963933
aF2.0789997481963933
aF2.0789997481963933
aF2.0789997481963933
aF2.0789997481963933
aF2.0789997481963933
aF2.0789997481963933
aF2.0789997481963933
aF2.0789997481963933
aF2.0789997481963933
aF2.0789997481963933
aF2.0789997481963942
aF2.0789997481963942
aF2.0789997481963942
asI55
(lp240
F2.0795354711495215
aF2.0487980170234494
aF1.9573773676788333
aF1.8059266865422621
aF1.595575982313985
aF1.3279976982831052
aF1.0055139613250452
aF0.63126329269237236
aF0.20945237037590797
aF-0.25427347576506293
aF-0.7523027361383976
aF-1.274343237054355
aF-1.806531969991513
aF-2.3304879325547341
aF-2.8226379661697774
aF-3.2544541767321746
aF-3.5944855633371864
aF-3.8128294128157254
aF-3.8875181393883067
aF-3.8105046598215493
aF-3.5901227515342882
aF-3.2485396714292691
aF-2.8157341601979646
aF-2.323129040401072
aF-1.7991649850874991
aF-1.2673097103561819
aF-0.74584513276716224
aF-0.24855162387424842
aF0.21434331435240145
aF0.63527704823873055
aF1.0086404023547337
aF1.3302529056918284
aF1.5969944224678547
aF1.8065548934013378
aF1.9572686548130316
aF2.0480079095014383
aF2.0781176904842105
aF2.0473810542847053
aF1.9560083317191046
aF1.8046485057117971
aF1.5944247411588817
aF1.3270003438545923
aF1.004686536435204
aF0.63060985932858127
aF0.20896478780280531
aF-0.25461476369759328
aF-0.75252678300045173
aF-1.2744855001800457
aF-1.806630149892801
aF-2.3305771304170992
aF-2.8227459704097231
aF-3.2545981768785479
aF-3.5946717710694998
aF-3.8130562907581735
aF-3.8877818920879044
aF-3.810803538278793
aF-3.5904569943420848
aF-3.2489071241507665
aF-2.8161247943224028
aF-2.3235217984385588
aF-1.7995282506535237
aF-1.2676046730833737
aF-0.74603056165439818
aF-0.24858875500056077
aF0.21448658162039907
aF0.63562302868809029
aF1.0091996837386477
aF1.3310235436761277
aF1.5979621499376799
aF1.8076941889793283
aF1.9585445051038883
aF2.0493781007341014
asI60
(lp241
F2.0795556528397863
aF2.0451905041706659
aF1.9428854082159734
aF1.7730786553458451
aF1.5365304817651391
aF1.2343700261386541
aF0.86817924919610845
aF0.44013715143798227
aF-0.046737717921142216
aF-0.58818710337344493
aF-1.1780674965537183
aF-1.8073417264573046
aF-2.4625821844850182
aF-3.1239377028162183
aF-3.7628150341389266
aF-4.3402383447456891
aF-4.8079797007475991
aF-5.1152318220921718
aF-5.221638058520143
aF-5.1117768768836038
aF-4.8016182722967873
aF-4.3318443152138748
aF-3.7533093754645841
aF-3.1141035869612752
aF-2.4530013407550193
aF-1.7984070408504671
aF-1.1700234765096234
aF-0.58117124850327495
aF-0.040813384447099872
aF0.44495720617652412
aF0.8719166202875559
aF1.2370693831566961
aF1.5382514156064704
aF1.7738893890950131
aF1.9428575829819463
aF2.0443945864807391
aF2.0780567387180029
aF2.0436948577204137
aF1.9414473349425956
aF1.7717474989934123
aF1.5353474508054195
aF1.2333654202006796
aF0.86737026420447827
aF0.43952645911328603
aF-0.047162402371514311
aF-0.58845223594766927
aF-1.1782114671805752
aF-1.8074109610843765
aF-2.4626254844774191
aF-3.1239990223050267
aF-3.7629256026361304
aF-4.3404103459406205
aF-4.8082052430974995
aF-5.1154907208187783
aF-5.2219129983786861
aF-5.1120663491363194
aF-4.8019363679262401
aF-4.3322075417431991
aF-3.7537215517101381
aF-3.1145482770451025
aF-2.4534430850581819
aF-1.7987978059000547
aF-1.1703106043945193
aF-0.58130472289414137
aF-0.040751522659460755
aF0.44524382951724228
aF0.87244291489279213
aF1.2378349417696597
aF1.5392409355683516
aF1.7750740868445196
aF1.9441973865656856
aF2.0458409090407801
asI65
(lp242
F2.079572091027722
aF2.0419265159889992
aF1.9297612081003626
aF1.7432640703257476
aF1.4827564858234794
aF1.1487042818749198
aF0.74174865182136951
aF0.26277952315897141
aF-0.28690739874506244
aF-0.90529584621149506
aF-1.5890463312194667
aF-2.3323849705799242
aF-3.1251347690073357
aF-3.9494179506554641
aF-4.7746501686662564
aF-5.5513680042565472
aF-6.2072884953601726
aF-6.653809535331642
aF-6.8116694941075293
aF-6.6485149748633452
aF-6.197835217001149
aF-5.5393960781257867
aF-4.7616609015313474
aF-3.9364963433883609
aF-3.1129587792533515
aF-2.3213347529012363
aF-1.5793103513169262
aF-0.89694603345587165
aF-0.27994609182665342
aF0.26839173230111818
aF0.74607649483714955
aF1.1518277407060289
aF1.4847640447061159
aF1.7442475895312142
aF1.9298115055115115
aF2.0411291998418895
aF2.0780034510909804
aF2.0403635686382984
aF1.928265041740223
aF1.7418900637761152
aF1.4815506366532836
aF1.1476999470564644
aF0.74096389126720252
aF0.26221526227716918
aF-0.28726813831941433
aF-0.90548735585883411
aF-1.589117915390708
aF-2.3323965120812105
aF-3.1251496558670384
aF-3.9494929006581043
aF-4.7748220817200178
aF-5.5516402067931692
aF-6.2076239320321234
aF-6.654144057167775
aF-6.8119508592666449
aF-6.6487424671510826
aF-6.1980589109947894
aF-5.5396765099583583
aF-4.7620304900796748
aF-3.9369468068586899
aF-3.113448376935946
aF-2.3218022078775089
aF-1.5796880437481549
aF-0.89717018903148404
aF-0.27996386619481473
aF0.26861780441662331
aF0.74656618495084592
aF1.1525825238882086
aF1.48576786136372
aF1.7454686798446613
aF1.9312050663283642
aF2.042640646334267
asI70
(lp243
F2.0795850800623046
aF2.0391065704740012
aF1.9184125216707317
aF1.7174311162186946
aF1.4360220347150421
aF1.073937875756227
aF0.63077675459828886
aF0.10593880778107909
aF-0.50138476667387144
aF-1.1921283567356449
aF-1.9670443114324698
aF-2.8259024558999304
aF-3.7656533437242152
aF-4.776503305525349
aF-5.8340818193731288
aF-6.8854938228057181
aF-7.8303133201445307
aF-8.5124454674040919
aF-8.7626647295505382
aF-8.5038798388966192
aF-7.8158111161869162
aF-6.8682739199356382
aF-5.8164936902823525
aF-4.759861764527348
aF-3.7505747806210255
aF-2.8126206958000397
aF-1.9556026967501712
aF-1.1824798202576601
aF-0.49344043083818612
aF0.11228682694695959
aF0.63564466644600148
aF1.0774448470693283
aF1.4382868593228895
aF1.7185694002933019
aF1.9185337210486377
aF2.0383106336434373
aF2.0779586529218173
aF2.0374880799424822
aF1.9168691160316342
aF1.716023557330377
aF1.4348005665108849
aF1.0729385004443932
aF0.6300181074454797
aF0.10541984948860882
aF-0.50168598333864245
aF-1.1922545351761924
aF-1.9670569722734355
aF-2.8258776320825345
aF-3.7656739740932661
aF-4.7766467381684201
aF-5.8344000430460641
aF-6.8859848978222393
aF-7.8308918757482182
aF-8.5129483332925719
aF-8.7629448658605931
aF-8.503939053124375
aF-7.8157970965424788
aF-6.8683456738281841
aF-5.8167301957005186
aF-4.7602585109962527
aF-3.7510739501869086
aF-2.8131397487750149
aF-1.9560540344866892
aF-1.1827832059863845
aF-0.49353056267198292
aF0.11245601835636727
aF0.63609807515481298
aF1.078186034487161
aF1.4392992845673083
aF1.7198187284925039
aF1.9199709521704635
aF2.039875831225749
asI75
(lp244
F2.079594883160202
aF2.036817588822236
aF1.9091936034712751
aF1.6964103616330859
aF1.3978948094203556
aF1.0127195779833411
aF0.53946425895855121
aF-0.02397340091570024
aF-0.68061724199572105
aF-1.4346888096280073
aF-2.2918618233986527
aF-3.2593220822977322
aF-4.3451608316440629
aF-5.5558538279429026
aF-6.8886097783370159
aF-8.3108774107551042
aF-9.7129485983952151
aF-10.833972412099385
aF-11.27630548497635
aF-10.818803158030017
aF-9.6897142747425509
aF-8.2859984917944516
aF-6.8652188965498198
aF-5.5350190643325794
aF-4.3270739524285675
aF-3.2438659555127511
aF-2.2788319141032027
aF-1.4238706059256114
aF-0.67180918675053258
aF-0.016990666451526477
aF0.54479170155835455
aF1.0165496236206244
aF1.4003749170707476
aF1.6976778395055938
aF1.9093744998894937
aF2.0360243608840185
aF2.0779230475154296
aF2.0351556076056969
aF1.907613675712478
aF1.6949777298080473
aF1.3966632335796538
aF1.0117272008145517
aF0.53873004304225358
aF-0.024452459417106061
aF-0.68086789197925213
aF-1.4347620498164406
aF-2.2918318032985123
aF-3.2592829068690774
aF-4.3452203115354591
aF-5.5561219018281118
aF-6.8891758965107446
aF-8.3117639276071351
aF-9.7140230120579734
aF-10.83486082045378
aF-11.276568426302598
aF-10.818451935783633
aF-9.6891958810676737
aF-8.2856773156409549
aF-6.8652154906918685
aF-5.535301590478805
aF-4.3275456520994862
aF-3.2444109311940346
aF-2.2793372433830577
aF-1.4242376779867651
aF-0.67195985000303482
aF-0.016870386793882548
aF0.54521275198569852
aF1.0172770733088285
aF1.4013919758478028
aF1.6989480894376328
aF1.910845464844243
aF2.0376316489494344
asI80
(lp245
F2.079601719405741
aF2.0351301809921161
aF1.9023933691610617
aF1.6808839028877496
aF1.3696756496049198
aF0.96727931383966337
aF0.47141753344927284
aF-0.12130699169751456
aF-0.81588987197867646
aF-1.6196066947719421
aF-2.5429747081725274
aF-3.601081392214188
aF-4.8153106087499982
aF-6.2151421769500983
aF-7.8380942066984698
aF-9.7190291644758933
aF-11.832061939782896
aF-13.86400857909071
aF-14.811435113506377
aF-13.832823781273866
aF-11.793299299563703
aF-9.6837216468311951
aF-7.8081587217290584
aF-6.1901420174514241
aF-4.7944809011731397
aF-3.5837559693687373
aF-2.5286342242758302
aF-1.607851018672126
aF-0.80640389433397752
aF-0.11383360646621193
aF0.47709626790171605
aF0.9713543531303408
aF1.3723181293195699
aF1.6822486022461247
aF1.9026194337969189
aF2.0343397927025126
aF2.0778971997936666
aF2.0334369827077108
aF1.9007874883938944
aF1.6794339471608108
aF1.3684380085091399
aF0.96629369953017652
aF0.47070305755410558
aF-0.12175502564413963
aF-0.81610227724371365
aF-1.6196416412954526
aF-2.5429177607383173
aF-3.6010442569111105
aF-4.8154284247680392
aF-6.2155684672515825
aF-7.838989002390667
aF-9.720520095009519
aF-11.834096491075938
aF-13.865892267090507
aF-14.811631336145528
aF-13.831394717436369
aF-11.791794449757846
aF-9.6827921642534811
aF-7.8078304667783147
aF-6.1902730033224929
aF-4.794902024704232
aF-3.5843069798663301
aF-2.5291744620331147
aF-1.608264015309947
aF-0.80659990305774598
aF-0.11375078776447002
aF0.47749190875679259
aF0.97207021551511452
aF1.3733373327657015
aF1.6835332020957754
aF1.9041143538832974
aF2.0359772944850612
asI85
(lp246
F2.0796057531637113
aF2.0340964320718555
aF1.8982255940546819
aF1.6713591877524492
aF1.3523402338447408
aF0.93930888740951457
aF0.42941583479705614
aF-0.18161478207473969
aF-0.90014563521053537
aF-1.7356321934325103
aF-2.7021877970758954
aF-3.8210962331272711
aF-5.1250155630750243
aF-6.6653722669865303
aF-8.5260753113114429
aF-10.849717407377941
aF-13.879955310639758
aF-17.872916419850768
aF-20.840778091693153
aF-17.79375426999464
aF-13.817103437519197
aF-10.803258110333417
aF-8.4904399685369114
aF-6.6371521487959235
aF-5.102215405110778
aF-3.8024898433810108
aF-2.686977126749253
aF-1.7232674275897937
aF-0.89022587205374126
aF-0.17383084903912754
aF0.43531516680011217
aF0.94353690513603827
aF1.3550837160533815
aF1.6727842601059604
aF1.8984797969707701
aF2.0333081177059058
aF2.0778815230589389
aF2.0323844436099545
aF1.8966042000670724
aF1.6698990827387685
aF1.3510994333454021
aF0.93832806001936675
aF0.4287141406996573
aF-0.18204319002231292
aF-0.90033431070812087
aF-1.7356442249955419
aF-2.7021168536577003
aF-3.8210672570194717
aF-5.1251862402410193
aF-6.6659378314142126
aF-8.5272820424361555
aF-10.85189359647458
aF-13.883540443765432
aF-17.877870206762125
aF-20.840585898638835
aF-17.78902992711852
aF-13.814011712108051
aF-10.801637739914895
aF-8.4898011975330832
aF-6.637147517539443
aF-5.1025881537034259
aF-3.8030374506841835
aF-2.6875361026556965
aF-1.7237078950313918
aF-0.89044986185008712
aF-0.17377151652616354
aF0.43569462197735115
aF0.94424508224052883
aF1.3561037226548036
aF1.6740772215146673
aF1.8999890291756669
aF2.0349638064312909
asI90
(lp247
F2.0796070862563711
aF2.0337482644741938
aF1.896821576143362
aF1.668149049440627
aF1.3464934409989293
aF0.92986551297401532
aF0.41521501499956792
aF-0.20204511459042038
aF-0.92876715112230412
aF-1.7751988987238863
aF-2.7567874047422753
aF-3.8971802536518512
aF-5.2335160560156888
aF-6.8265039969814563
aF-8.7817680626647903
aF-11.302330893607175
aF-14.851071126623854
aF-20.921022504274124
aF-59.809494578822765
aF-20.762063385174663
aF-14.772244250997115
aF-11.250541645696707
aF-8.7437779246585983
aF-6.7970500402537031
aF-5.2099927265809454
aF-3.8781160795908445
aF-2.7412710784385999
aF-1.7626226642736276
aF-0.91869799247093442
aF-0.19415483719879392
aF0.42118958069755863
aF0.93414555123945364
aF1.3492712017855146
aF1.6695945927340359
aF1.897085334069899
aF2.0329607039414217
aF2.0778762692635135
aF2.0320300027309912
aF1.8951950213463058
aF1.6666856032866753
aF1.3452516691468124
aF0.92888640512003806
aF0.41451773991364893
aF-0.2024668123373323
aF-0.92894779464150123
aF-1.7752033330488488
aF-2.7567122477604493
aF-3.8971554169674438
aF-5.2337081269871977
aF-6.8271260569774048
aF-8.7831085328323084
aF-11.304842574312165
aF-14.855701545763459
aF-20.931186633315374
aF-56.913143290580372
aF-20.751911955682402
aF-14.768091353408316
aF-11.24858353089714
aF-8.7430057696249541
aF-6.7969900761351632
aF-5.2103455470232527
aF-3.8786611167205582
aF-2.7418358400934064
aF-1.7630722433309809
aF-0.91893142956640317
aF-0.19410350119542585
aF0.42156348196298071
aF0.93485104212257109
aF1.3502913937060561
aF1.6708902988380072
aF1.8985993263334131
aF2.0346224646718376
asI95
(lp248
F2.0796057531637113
aF2.0340964320718555
aF1.8982255940546813
aF1.6713591877524492
aF1.3523402338447408
aF0.93930888740951457
aF0.42941583479705614
aF-0.18161478207473969
aF-0.90014563521053592
aF-1.7356321934325103
aF-2.7021877970758954
aF-3.8210962331272711
aF-5.1250155630750243
aF-6.6653722669865303
aF-8.5260753113114429
aF-10.849717407377943
aF-13.87995531063976
aF-17.872916419850775
aF-20.84077809169316
aF-17.793754269994647
aF-13.817103437519201
aF-10.803258110333413
aF-8.4904399685369132
aF-6.6371521487959235
aF-5.102215405110778
aF-3.8024898433810108
aF-2.686977126749253
aF-1.7232674275897937
aF-0.89022587205374126
aF-0.17383084903912754
aF0.43531516680011123
aF0.94353690513603827
aF1.3550837160533815
aF1.6727842601059604
aF1.8984797969707701
aF2.0333081177059058
aF2.0778815230589389
aF2.0323844436099545
aF1.8966042000670724
aF1.6698990827387685
aF1.3510994333454021
aF0.93832806001936675
aF0.4287141406996573
aF-0.18204319002231292
aF-0.90033431070812087
aF-1.7356442249955419
aF-2.7021168536577007
aF-3.8210672570194704
aF-5.1251862402410193
aF-6.6659378314142126
aF-8.5272820424361555
aF-10.851893596474582
aF-13.883540443765433
aF-17.877870206762129
aF-20.840585898638849
aF-17.789029927118527
aF-13.814011712108055
aF-10.801637739914895
aF-8.4898011975330814
aF-6.637147517539443
aF-5.1025881537034241
aF-3.8030374506841835
aF-2.6875361026556965
aF-1.7237078950313918
aF-0.89044986185008712
aF-0.17377151652616402
aF0.43569462197735115
aF0.94424508224052883
aF1.3561037226548027
aF1.6740772215146673
aF1.8999890291756669
aF2.0349638064312909
asI100
(lp249
F2.079601719405741
aF2.0351301809921152
aF1.9023933691610617
aF1.6808839028877496
aF1.3696756496049198
aF0.96727931383966337
aF0.47141753344927284
aF-0.12130699169751456
aF-0.81588987197867691
aF-1.6196066947719421
aF-2.5429747081725274
aF-3.6010813922141898
aF-4.8153106087499999
aF-6.2151421769500992
aF-7.8380942066984707
aF-9.719029164475895
aF-11.832061939782898
aF-13.864008579090717
aF-14.811435113506384
aF-13.83282378127387
aF-11.793299299563703
aF-9.6837216468311968
aF-7.8081587217290584
aF-6.1901420174514241
aF-4.7944809011731406
aF-3.5837559693687373
aF-2.5286342242758302
aF-1.6078510186721267
aF-0.80640389433397752
aF-0.11383360646621243
aF0.47709626790171605
aF0.9713543531303408
aF1.3723181293195699
aF1.6822486022461234
aF1.9026194337969189
aF2.0343397927025126
aF2.0778971997936666
aF2.0334369827077108
aF1.9007874883938944
aF1.6794339471608108
aF1.368438008509139
aF0.96629369953017652
aF0.47070305755410558
aF-0.12175502564414012
aF-0.81610227724371365
aF-1.6196416412954526
aF-2.5429177607383173
aF-3.6010442569111105
aF-4.8154284247680401
aF-6.2155684672515834
aF-7.8389890023906688
aF-9.7205200950095225
aF-11.83409649107594
aF-13.865892267090512
aF-14.811631336145531
aF-13.831394717436376
aF-11.791794449757846
aF-9.6827921642534811
aF-7.8078304667783147
aF-6.1902730033224938
aF-4.7949020247042329
aF-3.584306979866331
aF-2.5291744620331147
aF-1.6082640153099479
aF-0.80659990305774598
aF-0.11375078776447051
aF0.47749190875679259
aF0.97207021551511452
aF1.373337332765701
aF1.6835332020957747
aF1.9041143538832974
aF2.0359772944850612
asI105
(lp250
F2.0795948831601994
aF2.0368175888222333
aF1.9091936034712751
aF1.6964103616330852
aF1.3978948094203547
aF1.0127195779833411
aF0.53946425895854944
aF-0.023973400915699754
aF-0.68061724199572149
aF-1.4346888096280077
aF-2.2918618233986527
aF-3.2593220822977322
aF-4.3451608316440629
aF-5.5558538279429035
aF-6.8886097783370186
aF-8.3108774107551042
aF-9.7129485983952115
aF-10.833972412099378
aF-11.276305484976346
aF-10.818803158030017
aF-9.6897142747425473
aF-8.2859984917944498
aF-6.865218896549818
aF-5.5350190643325794
aF-4.3270739524285684
aF-3.2438659555127543
aF-2.2788319141032036
aF-1.4238706059256132
aF-0.67180918675053491
aF-0.01699066645152841
aF0.54479170155835455
aF1.0165496236206235
aF1.4003749170707447
aF1.6976778395055954
aF1.9093744998894937
aF2.0360243608840194
aF2.0779230475154273
aF2.0351556076056974
aF1.9076136757124762
aF1.6949777298080473
aF1.3966632335796534
aF1.011727200814551
aF0.53873004304225358
aF-0.024452459417106547
aF-0.68086789197925379
aF-1.4347620498164413
aF-2.2918318032985137
aF-3.2592829068690787
aF-4.3452203115354591
aF-5.5561219018281118
aF-6.889175896510741
aF-8.3117639276071333
aF-9.7140230120579734
aF-10.83486082045378
aF-11.276568426302596
aF-10.818451935783633
aF-9.6891958810676719
aF-8.2856773156409531
aF-6.8652154906918694
aF-5.535301590478805
aF-4.3275456520994853
aF-3.244410931194035
aF-2.2793372433830577
aF-1.4242376779867636
aF-0.67195985000303593
aF-0.016870386793882065
aF0.54521275198569852
aF1.0172770733088268
aF1.4013919758478028
aF1.6989480894376316
aF1.910845464844241
aF2.0376316489494335
asI110
(lp251
F2.0795850800623032
aF2.0391065704740026
aF1.9184125216707297
aF1.7174311162186919
aF1.4360220347150428
aF1.0739378757562277
aF0.63077675459828619
aF0.10593880778107813
aF-0.501384766673872
aF-1.1921283567356449
aF-1.9670443114324736
aF-2.8259024558999317
aF-3.7656533437242152
aF-4.7765033055253507
aF-5.8340818193731341
aF-6.8854938228057243
aF-7.8303133201445334
aF-8.5124454674040955
aF-8.7626647295505435
aF-8.5038798388966246
aF-7.8158111161869206
aF-6.8682739199356435
aF-5.8164936902823534
aF-4.7598617645273498
aF-3.7505747806210268
aF-2.8126206958000428
aF-1.9556026967501743
aF-1.1824798202576616
aF-0.49344043083818712
aF0.11228682694695959
aF0.63564466644600071
aF1.0774448470693283
aF1.4382868593228895
aF1.7185694002933025
aF1.9185337210486366
aF2.0383106336434373
aF2.0779586529218159
aF2.0374880799424835
aF1.9168691160316338
aF1.7160235573303768
aF1.4348005665108863
aF1.0729385004443923
aF0.6300181074454807
aF0.10541984948860787
aF-0.50168598333864534
aF-1.1922545351761931
aF-1.9670569722734377
aF-2.8258776320825367
aF-3.7656739740932683
aF-4.776646738168421
aF-5.8344000430460667
aF-6.8859848978222438
aF-7.8308918757482218
aF-8.5129483332925755
aF-8.7629448658605984
aF-8.5039390531243804
aF-7.8157970965424814
aF-6.8683456738281876
aF-5.8167301957005257
aF-4.7602585109962519
aF-3.7510739501869086
aF-2.8131397487750185
aF-1.9560540344866921
aF-1.1827832059863865
aF-0.49353056267198503
aF0.11245601835636539
aF0.63609807515481631
aF1.0781860344871594
aF1.439299284567306
aF1.7198187284925039
aF1.919970952170462
aF2.039875831225749
asI115
(lp252
F2.079572091027722
aF2.041926515989001
aF1.9297612081003619
aF1.7432640703257456
aF1.4827564858234807
aF1.1487042818749198
aF0.74174865182136951
aF0.26277952315897141
aF-0.28690739874506244
aF-0.90529584621149561
aF-1.5890463312194671
aF-2.332384970579926
aF-3.1251347690073352
aF-3.9494179506554632
aF-4.7746501686662572
aF-5.5513680042565516
aF-6.2072884953601744
aF-6.6538095353316438
aF-6.8116694941075355
aF-6.6485149748633461
aF-6.1978352170011508
aF-5.5393960781257876
aF-4.7616609015313465
aF-3.9364963433883657
aF-3.1129587792533515
aF-2.3213347529012389
aF-1.5793103513169275
aF-0.89694603345587298
aF-0.27994609182665287
aF0.26839173230111729
aF0.746076494837148
aF1.1518277407060289
aF1.4847640447061172
aF1.7442475895312128
aF1.929811505511513
aF2.0411291998418895
aF2.0780034510909813
aF2.0403635686382993
aF1.928265041740223
aF1.7418900637761152
aF1.4815506366532836
aF1.1476999470564651
aF0.7409638912672043
aF0.26221526227716829
aF-0.28726813831941489
aF-0.905487355858836
aF-1.5891179153907089
aF-2.3323965120812118
aF-3.1251496558670402
aF-3.9494929006581083
aF-4.7748220817200213
aF-5.5516402067931736
aF-6.2076239320321296
aF-6.6541440571677768
aF-6.8119508592666467
aF-6.6487424671510844
aF-6.1980589109947886
aF-5.5396765099583565
aF-4.7620304900796748
aF-3.9369468068586895
aF-3.1134483769359478
aF-2.3218022078775089
aF-1.5796880437481542
aF-0.89717018903148404
aF-0.27996386619481417
aF0.26861780441662242
aF0.7465661849508467
aF1.1525825238882095
aF1.4857678613637193
aF1.7454686798446619
aF1.9312050663283642
aF2.0426406463342688
asI120
(lp253
F2.0795556528397849
aF2.0451905041706655
aF1.9428854082159734
aF1.7730786553458451
aF1.5365304817651382
aF1.2343700261386541
aF0.86817924919610845
aF0.44013715143798227
aF-0.046737717921144166
aF-0.58818710337344615
aF-1.1780674965537177
aF-1.807341726457306
aF-2.4625821844850195
aF-3.1239377028162227
aF-3.7628150341389288
aF-4.3402383447456927
aF-4.8079797007476053
aF-5.1152318220921789
aF-5.2216380585201509
aF-5.1117768768836118
aF-4.8016182722967899
aF-4.3318443152138801
aF-3.753309375464589
aF-3.1141035869612792
aF-2.4530013407550229
aF-1.7984070408504671
aF-1.1700234765096234
aF-0.58117124850327562
aF-0.040813384447099386
aF0.44495720617652235
aF0.8719166202875559
aF1.2370693831566961
aF1.5382514156064688
aF1.7738893890950123
aF1.9428575829819472
aF2.0443945864807396
aF2.078056738718002
aF2.0436948577204133
aF1.9414473349425945
aF1.7717474989934128
aF1.5353474508054179
aF1.2333654202006781
aF0.86737026420447738
aF0.43952645911328603
aF-0.047162402371514811
aF-0.58845223594766927
aF-1.1782114671805739
aF-1.8074109610843765
aF-2.4626254844774205
aF-3.1239990223050293
aF-3.7629256026361375
aF-4.3404103459406249
aF-4.8082052430975022
aF-5.1154907208187836
aF-5.2219129983786914
aF-5.1120663491363247
aF-4.8019363679262446
aF-4.3322075417432027
aF-3.7537215517101394
aF-3.1145482770451061
aF-2.4534430850581841
aF-1.7987978059000564
aF-1.1703106043945213
aF-0.5813047228941437
aF-0.040751522659460755
aF0.44524382951724228
aF0.87244291489279135
aF1.237834941769659
aF1.5392409355683516
aF1.7750740868445203
aF1.9441973865656856
aF2.0458409090407788
asI125
(lp254
F2.0795354711495202
aF2.048798017023449
aF1.9573773676788329
aF1.8059266865422603
aF1.5955759823139837
aF1.3279976982831043
aF1.0055139613250446
aF0.63126329269237069
aF0.20945237037590614
aF-0.25427347576506498
aF-0.75230273613839926
aF-1.2743432370543588
aF-1.8065319699915192
aF-2.330487932554735
aF-2.8226379661697805
aF-3.2544541767321782
aF-3.5944855633371926
aF-3.8128294128157285
aF-3.8875181393883151
aF-3.8105046598215542
aF-3.5901227515342944
aF-3.2485396714292754
aF-2.8157341601979673
aF-2.3231290404010756
aF-1.7991649850874998
aF-1.2673097103561839
aF-0.74584513276716502
aF-0.2485516238742525
aF0.21434331435239959
aF0.63527704823872888
aF1.0086404023547322
aF1.3302529056918269
aF1.5969944224678543
aF1.8065548934013358
aF1.9572686548130311
aF2.0480079095014383
aF2.0781176904842082
aF2.0473810542847044
aF1.9560083317191035
aF1.8046485057117954
aF1.5944247411588806
aF1.3270003438545923
aF1.0046865364352024
aF0.63060985932858038
aF0.20896478780280256
aF-0.25461476369759534
aF-0.75252678300045628
aF-1.2744855001800457
aF-1.8066301498928028
aF-2.3305771304171023
aF-2.8227459704097271
aF-3.2545981768785519
aF-3.5946717710695046
aF-3.8130562907581798
aF-3.8877818920879137
aF-3.8108035382788001
aF-3.590456994342091
aF-3.248907124150771
aF-2.8161247943224064
aF-2.3235217984385641
aF-1.7995282506535293
aF-1.2676046730833777
aF-0.74603056165440051
aF-0.24858875500056332
aF0.21448658162039544
aF0.6356230286880894
aF1.009199683738647
aF1.3310235436761273
aF1.597962149937679
aF1.8076941889793272
aF1.9585445051038857
aF2.0493781007341014
assS'max_density'
p255
F4.4541646823495541e-05
sS'xy'
p256
(lp257
F2.0796070862563711
aF2.0337482644741938
aF1.896821576143362
aF1.668149049440627
aF1.3464934409989293
aF0.92986551297401532
aF0.41521501499956792
aF-0.20204511459042038
aF-0.92876715112230412
aF-1.7751988987238863
aF-2.7567874047422753
aF-3.8971802536518512
aF-5.2335160560156888
aF-6.8265039969814563
aF-8.7817680626647903
aF-11.302330893607175
aF-14.851071126623854
aF-20.921022504274124
aF-59.809494578822765
aF-20.762063385174663
aF-14.772244250997115
aF-11.250541645696707
aF-8.7437779246585983
aF-6.7970500402537031
aF-5.2099927265809454
aF-3.8781160795908445
aF-2.7412710784385999
aF-1.7626226642736276
aF-0.91869799247093442
aF-0.19415483719879392
aF0.42118958069755863
aF0.93414555123945364
aF1.3492712017855146
aF1.6695945927340359
aF1.897085334069899
aF2.0329607039414217
aF2.0778762692635135
aF2.0320300027309912
aF1.8951950213463058
aF1.6666856032866753
aF1.3452516691468124
aF0.92888640512003806
aF0.41451773991364893
aF-0.2024668123373323
aF-0.92894779464150123
aF-1.7752033330488488
aF-2.7567122477604493
aF-3.8971554169674438
aF-5.2337081269871977
aF-6.8271260569774048
aF-8.7831085328323084
aF-11.304842574312165
aF-14.855701545763459
aF-20.931186633315374
aF-56.913143290580372
aF-20.751911955682402
aF-14.768091353408316
aF-11.24858353089714
aF-8.7430057696249541
aF-6.7969900761351632
aF-5.2103455470232527
aF-3.8786611167205582
aF-2.7418358400934064
aF-1.7630722433309809
aF-0.91893142956640317
aF-0.19410350119542585
aF0.42156348196298071
aF0.93485104212257109
aF1.3502913937060561
aF1.6708902988380072
aF1.8985993263334131
aF2.0346224646718376
aF2.0796070862563711
asS'TRP'
p258
F0.0086687291546690311
sS'directivity_dB'
p259
F2.0796070862563711
sS'directivity'
p260
F1.6142125096170141
sb.