(lp1
F7.3135156213414874
aF3.472158186259314
aF-3.3984315364651012
aF-3.7509871102890848
aF-3.3984315364651021
aF3.472158186259314
aF7.3135156213414891
aF3.4721581862593158
aF-3.3984315364650941
aF-3.7509871102890817
aF-3.3984315364650945
aF3.4721581862593158
aF3.472158186259314
a.