(lp1
F7.3135156213414874
aF3.9512634607640562
aF-5.277868024330993
aF-309.21586463235724
aF-5.2778680243310028
aF3.9512634607640562
aF7.31351562134149
aF3.9512634607640509
aF-5.2778680243310125
aF-308.19648304284715
aF-5.2778680243310072
aF3.9512634607640509
aF3.472158186259314
a.