(lp1
F-3.7509871102890848
aF-8.7288324216543796
aF-9.3757220088365063
aF-309.21586463235724
aF-9.3757220088364921
aF-8.7288324216543796
aF-3.7509871102890817
aF-8.7288324216543991
aF-9.3757220088364885
aF-308.19648304284715
aF-9.3757220088365081
aF-8.728832421654392
aF-3.7509871102890848
a.